
ada_main3.0.elf:     file format elf32-littlearm

Sections:
Idx Name          Size      VMA       LMA       File off  Algn
  0 .isr_vector   00000298  08000000  08000000  00001000  2**0
                  CONTENTS, ALLOC, LOAD, READONLY, DATA
  1 .text         00004d8c  08000298  08000298  00001298  2**2
                  CONTENTS, ALLOC, LOAD, READONLY, CODE
  2 .rodata       00000098  08005024  08005024  00006024  2**2
                  CONTENTS, ALLOC, LOAD, READONLY, DATA
  3 .ARM.extab    00000000  080050bc  080050bc  00007018  2**0
                  CONTENTS
  4 .ARM          00000008  080050bc  080050bc  000060bc  2**2
                  CONTENTS, ALLOC, LOAD, READONLY, DATA
  5 .preinit_array 00000000  080050c4  080050c4  00007018  2**0
                  CONTENTS, ALLOC, LOAD, DATA
  6 .init_array   00000004  080050c4  080050c4  000060c4  2**2
                  CONTENTS, ALLOC, LOAD, DATA
  7 .fini_array   00000004  080050c8  080050c8  000060c8  2**2
                  CONTENTS, ALLOC, LOAD, DATA
  8 .data         00000018  24000000  080050cc  00007000  2**2
                  CONTENTS, ALLOC, LOAD, DATA
  9 .bss          00000544  24000018  080050e4  00007018  2**2
                  ALLOC
 10 ._user_heap_stack 00000604  2400055c  080050e4  0000755c  2**0
                  ALLOC
 11 .ARM.attributes 0000002e  00000000  00000000  00007018  2**0
                  CONTENTS, READONLY
 12 .comment      00000043  00000000  00000000  00007046  2**0
                  CONTENTS, READONLY
 13 .debug_frame  000000d4  00000000  00000000  0000708c  2**2
                  CONTENTS, READONLY, DEBUGGING, OCTETS

Disassembly of section .text:

08000298 <__do_global_dtors_aux>:
 8000298:	b510      	push	{r4, lr}
 800029a:	4c05      	ldr	r4, [pc, #20]	@ (80002b0 <__do_global_dtors_aux+0x18>)
 800029c:	7823      	ldrb	r3, [r4, #0]
 800029e:	b933      	cbnz	r3, 80002ae <__do_global_dtors_aux+0x16>
 80002a0:	4b04      	ldr	r3, [pc, #16]	@ (80002b4 <__do_global_dtors_aux+0x1c>)
 80002a2:	b113      	cbz	r3, 80002aa <__do_global_dtors_aux+0x12>
 80002a4:	4804      	ldr	r0, [pc, #16]	@ (80002b8 <__do_global_dtors_aux+0x20>)
 80002a6:	f3af 8000 	nop.w
 80002aa:	2301      	movs	r3, #1
 80002ac:	7023      	strb	r3, [r4, #0]
 80002ae:	bd10      	pop	{r4, pc}
 80002b0:	24000018 	.word	0x24000018
 80002b4:	00000000 	.word	0x00000000
 80002b8:	0800500c 	.word	0x0800500c

080002bc <frame_dummy>:
 80002bc:	b508      	push	{r3, lr}
 80002be:	4b03      	ldr	r3, [pc, #12]	@ (80002cc <frame_dummy+0x10>)
 80002c0:	b11b      	cbz	r3, 80002ca <frame_dummy+0xe>
 80002c2:	4903      	ldr	r1, [pc, #12]	@ (80002d0 <frame_dummy+0x14>)
 80002c4:	4803      	ldr	r0, [pc, #12]	@ (80002d4 <frame_dummy+0x18>)
 80002c6:	f3af 8000 	nop.w
 80002ca:	bd08      	pop	{r3, pc}
 80002cc:	00000000 	.word	0x00000000
 80002d0:	2400001c 	.word	0x2400001c
 80002d4:	0800500c 	.word	0x0800500c

080002d8 <__aeabi_uldivmod>:
 80002d8:	b953      	cbnz	r3, 80002f0 <__aeabi_uldivmod+0x18>
 80002da:	b94a      	cbnz	r2, 80002f0 <__aeabi_uldivmod+0x18>
 80002dc:	2900      	cmp	r1, #0
 80002de:	bf08      	it	eq
 80002e0:	2800      	cmpeq	r0, #0
 80002e2:	bf1c      	itt	ne
 80002e4:	f04f 31ff 	movne.w	r1, #4294967295
 80002e8:	f04f 30ff 	movne.w	r0, #4294967295
 80002ec:	f000 b988 	b.w	8000600 <__aeabi_idiv0>
 80002f0:	f1ad 0c08 	sub.w	ip, sp, #8
 80002f4:	e96d ce04 	strd	ip, lr, [sp, #-16]!
 80002f8:	f000 f806 	bl	8000308 <__udivmoddi4>
 80002fc:	f8dd e004 	ldr.w	lr, [sp, #4]
 8000300:	e9dd 2302 	ldrd	r2, r3, [sp, #8]
 8000304:	b004      	add	sp, #16
 8000306:	4770      	bx	lr

08000308 <__udivmoddi4>:
 8000308:	e92d 47f0 	stmdb	sp!, {r4, r5, r6, r7, r8, r9, sl, lr}
 800030c:	9d08      	ldr	r5, [sp, #32]
 800030e:	468e      	mov	lr, r1
 8000310:	4604      	mov	r4, r0
 8000312:	4688      	mov	r8, r1
 8000314:	2b00      	cmp	r3, #0
 8000316:	d14a      	bne.n	80003ae <__udivmoddi4+0xa6>
 8000318:	428a      	cmp	r2, r1
 800031a:	4617      	mov	r7, r2
 800031c:	d962      	bls.n	80003e4 <__udivmoddi4+0xdc>
 800031e:	fab2 f682 	clz	r6, r2
 8000322:	b14e      	cbz	r6, 8000338 <__udivmoddi4+0x30>
 8000324:	f1c6 0320 	rsb	r3, r6, #32
 8000328:	fa01 f806 	lsl.w	r8, r1, r6
 800032c:	fa20 f303 	lsr.w	r3, r0, r3
 8000330:	40b7      	lsls	r7, r6
 8000332:	ea43 0808 	orr.w	r8, r3, r8
 8000336:	40b4      	lsls	r4, r6
 8000338:	ea4f 4e17 	mov.w	lr, r7, lsr #16
 800033c:	fa1f fc87 	uxth.w	ip, r7
 8000340:	fbb8 f1fe 	udiv	r1, r8, lr
 8000344:	0c23      	lsrs	r3, r4, #16
 8000346:	fb0e 8811 	mls	r8, lr, r1, r8
 800034a:	ea43 4308 	orr.w	r3, r3, r8, lsl #16
 800034e:	fb01 f20c 	mul.w	r2, r1, ip
 8000352:	429a      	cmp	r2, r3
 8000354:	d909      	bls.n	800036a <__udivmoddi4+0x62>
 8000356:	18fb      	adds	r3, r7, r3
 8000358:	f101 30ff 	add.w	r0, r1, #4294967295
 800035c:	f080 80ea 	bcs.w	8000534 <__udivmoddi4+0x22c>
 8000360:	429a      	cmp	r2, r3
 8000362:	f240 80e7 	bls.w	8000534 <__udivmoddi4+0x22c>
 8000366:	3902      	subs	r1, #2
 8000368:	443b      	add	r3, r7
 800036a:	1a9a      	subs	r2, r3, r2
 800036c:	b2a3      	uxth	r3, r4
 800036e:	fbb2 f0fe 	udiv	r0, r2, lr
 8000372:	fb0e 2210 	mls	r2, lr, r0, r2
 8000376:	ea43 4302 	orr.w	r3, r3, r2, lsl #16
 800037a:	fb00 fc0c 	mul.w	ip, r0, ip
 800037e:	459c      	cmp	ip, r3
 8000380:	d909      	bls.n	8000396 <__udivmoddi4+0x8e>
 8000382:	18fb      	adds	r3, r7, r3
 8000384:	f100 32ff 	add.w	r2, r0, #4294967295
 8000388:	f080 80d6 	bcs.w	8000538 <__udivmoddi4+0x230>
 800038c:	459c      	cmp	ip, r3
 800038e:	f240 80d3 	bls.w	8000538 <__udivmoddi4+0x230>
 8000392:	443b      	add	r3, r7
 8000394:	3802      	subs	r0, #2
 8000396:	ea40 4001 	orr.w	r0, r0, r1, lsl #16
 800039a:	eba3 030c 	sub.w	r3, r3, ip
 800039e:	2100      	movs	r1, #0
 80003a0:	b11d      	cbz	r5, 80003aa <__udivmoddi4+0xa2>
 80003a2:	40f3      	lsrs	r3, r6
 80003a4:	2200      	movs	r2, #0
 80003a6:	e9c5 3200 	strd	r3, r2, [r5]
 80003aa:	e8bd 87f0 	ldmia.w	sp!, {r4, r5, r6, r7, r8, r9, sl, pc}
 80003ae:	428b      	cmp	r3, r1
 80003b0:	d905      	bls.n	80003be <__udivmoddi4+0xb6>
 80003b2:	b10d      	cbz	r5, 80003b8 <__udivmoddi4+0xb0>
 80003b4:	e9c5 0100 	strd	r0, r1, [r5]
 80003b8:	2100      	movs	r1, #0
 80003ba:	4608      	mov	r0, r1
 80003bc:	e7f5      	b.n	80003aa <__udivmoddi4+0xa2>
 80003be:	fab3 f183 	clz	r1, r3
 80003c2:	2900      	cmp	r1, #0
 80003c4:	d146      	bne.n	8000454 <__udivmoddi4+0x14c>
 80003c6:	4573      	cmp	r3, lr
 80003c8:	d302      	bcc.n	80003d0 <__udivmoddi4+0xc8>
 80003ca:	4282      	cmp	r2, r0
 80003cc:	f200 8105 	bhi.w	80005da <__udivmoddi4+0x2d2>
 80003d0:	1a84      	subs	r4, r0, r2
 80003d2:	eb6e 0203 	sbc.w	r2, lr, r3
 80003d6:	2001      	movs	r0, #1
 80003d8:	4690      	mov	r8, r2
 80003da:	2d00      	cmp	r5, #0
 80003dc:	d0e5      	beq.n	80003aa <__udivmoddi4+0xa2>
 80003de:	e9c5 4800 	strd	r4, r8, [r5]
 80003e2:	e7e2      	b.n	80003aa <__udivmoddi4+0xa2>
 80003e4:	2a00      	cmp	r2, #0
 80003e6:	f000 8090 	beq.w	800050a <__udivmoddi4+0x202>
 80003ea:	fab2 f682 	clz	r6, r2
 80003ee:	2e00      	cmp	r6, #0
 80003f0:	f040 80a4 	bne.w	800053c <__udivmoddi4+0x234>
 80003f4:	1a8a      	subs	r2, r1, r2
 80003f6:	0c03      	lsrs	r3, r0, #16
 80003f8:	ea4f 4e17 	mov.w	lr, r7, lsr #16
 80003fc:	b280      	uxth	r0, r0
 80003fe:	b2bc      	uxth	r4, r7
 8000400:	2101      	movs	r1, #1
 8000402:	fbb2 fcfe 	udiv	ip, r2, lr
 8000406:	fb0e 221c 	mls	r2, lr, ip, r2
 800040a:	ea43 4302 	orr.w	r3, r3, r2, lsl #16
 800040e:	fb04 f20c 	mul.w	r2, r4, ip
 8000412:	429a      	cmp	r2, r3
 8000414:	d907      	bls.n	8000426 <__udivmoddi4+0x11e>
 8000416:	18fb      	adds	r3, r7, r3
 8000418:	f10c 38ff 	add.w	r8, ip, #4294967295
 800041c:	d202      	bcs.n	8000424 <__udivmoddi4+0x11c>
 800041e:	429a      	cmp	r2, r3
 8000420:	f200 80e0 	bhi.w	80005e4 <__udivmoddi4+0x2dc>
 8000424:	46c4      	mov	ip, r8
 8000426:	1a9b      	subs	r3, r3, r2
 8000428:	fbb3 f2fe 	udiv	r2, r3, lr
 800042c:	fb0e 3312 	mls	r3, lr, r2, r3
 8000430:	ea40 4303 	orr.w	r3, r0, r3, lsl #16
 8000434:	fb02 f404 	mul.w	r4, r2, r4
 8000438:	429c      	cmp	r4, r3
 800043a:	d907      	bls.n	800044c <__udivmoddi4+0x144>
 800043c:	18fb      	adds	r3, r7, r3
 800043e:	f102 30ff 	add.w	r0, r2, #4294967295
 8000442:	d202      	bcs.n	800044a <__udivmoddi4+0x142>
 8000444:	429c      	cmp	r4, r3
 8000446:	f200 80ca 	bhi.w	80005de <__udivmoddi4+0x2d6>
 800044a:	4602      	mov	r2, r0
 800044c:	1b1b      	subs	r3, r3, r4
 800044e:	ea42 400c 	orr.w	r0, r2, ip, lsl #16
 8000452:	e7a5      	b.n	80003a0 <__udivmoddi4+0x98>
 8000454:	f1c1 0620 	rsb	r6, r1, #32
 8000458:	408b      	lsls	r3, r1
 800045a:	fa22 f706 	lsr.w	r7, r2, r6
 800045e:	431f      	orrs	r7, r3
 8000460:	fa0e f401 	lsl.w	r4, lr, r1
 8000464:	fa20 f306 	lsr.w	r3, r0, r6
 8000468:	fa2e fe06 	lsr.w	lr, lr, r6
 800046c:	ea4f 4917 	mov.w	r9, r7, lsr #16
 8000470:	4323      	orrs	r3, r4
 8000472:	fa00 f801 	lsl.w	r8, r0, r1
 8000476:	fa1f fc87 	uxth.w	ip, r7
 800047a:	fbbe f0f9 	udiv	r0, lr, r9
 800047e:	0c1c      	lsrs	r4, r3, #16
 8000480:	fb09 ee10 	mls	lr, r9, r0, lr
 8000484:	ea44 440e 	orr.w	r4, r4, lr, lsl #16
 8000488:	fb00 fe0c 	mul.w	lr, r0, ip
 800048c:	45a6      	cmp	lr, r4
 800048e:	fa02 f201 	lsl.w	r2, r2, r1
 8000492:	d909      	bls.n	80004a8 <__udivmoddi4+0x1a0>
 8000494:	193c      	adds	r4, r7, r4
 8000496:	f100 3aff 	add.w	sl, r0, #4294967295
 800049a:	f080 809c 	bcs.w	80005d6 <__udivmoddi4+0x2ce>
 800049e:	45a6      	cmp	lr, r4
 80004a0:	f240 8099 	bls.w	80005d6 <__udivmoddi4+0x2ce>
 80004a4:	3802      	subs	r0, #2
 80004a6:	443c      	add	r4, r7
 80004a8:	eba4 040e 	sub.w	r4, r4, lr
 80004ac:	fa1f fe83 	uxth.w	lr, r3
 80004b0:	fbb4 f3f9 	udiv	r3, r4, r9
 80004b4:	fb09 4413 	mls	r4, r9, r3, r4
 80004b8:	ea4e 4404 	orr.w	r4, lr, r4, lsl #16
 80004bc:	fb03 fc0c 	mul.w	ip, r3, ip
 80004c0:	45a4      	cmp	ip, r4
 80004c2:	d908      	bls.n	80004d6 <__udivmoddi4+0x1ce>
 80004c4:	193c      	adds	r4, r7, r4
 80004c6:	f103 3eff 	add.w	lr, r3, #4294967295
 80004ca:	f080 8082 	bcs.w	80005d2 <__udivmoddi4+0x2ca>
 80004ce:	45a4      	cmp	ip, r4
 80004d0:	d97f      	bls.n	80005d2 <__udivmoddi4+0x2ca>
 80004d2:	3b02      	subs	r3, #2
 80004d4:	443c      	add	r4, r7
 80004d6:	ea43 4000 	orr.w	r0, r3, r0, lsl #16
 80004da:	eba4 040c 	sub.w	r4, r4, ip
 80004de:	fba0 ec02 	umull	lr, ip, r0, r2
 80004e2:	4564      	cmp	r4, ip
 80004e4:	4673      	mov	r3, lr
 80004e6:	46e1      	mov	r9, ip
 80004e8:	d362      	bcc.n	80005b0 <__udivmoddi4+0x2a8>
 80004ea:	d05f      	beq.n	80005ac <__udivmoddi4+0x2a4>
 80004ec:	b15d      	cbz	r5, 8000506 <__udivmoddi4+0x1fe>
 80004ee:	ebb8 0203 	subs.w	r2, r8, r3
 80004f2:	eb64 0409 	sbc.w	r4, r4, r9
 80004f6:	fa04 f606 	lsl.w	r6, r4, r6
 80004fa:	fa22 f301 	lsr.w	r3, r2, r1
 80004fe:	431e      	orrs	r6, r3
 8000500:	40cc      	lsrs	r4, r1
 8000502:	e9c5 6400 	strd	r6, r4, [r5]
 8000506:	2100      	movs	r1, #0
 8000508:	e74f      	b.n	80003aa <__udivmoddi4+0xa2>
 800050a:	fbb1 fcf2 	udiv	ip, r1, r2
 800050e:	0c01      	lsrs	r1, r0, #16
 8000510:	ea41 410e 	orr.w	r1, r1, lr, lsl #16
 8000514:	b280      	uxth	r0, r0
 8000516:	ea40 4201 	orr.w	r2, r0, r1, lsl #16
 800051a:	463b      	mov	r3, r7
 800051c:	4638      	mov	r0, r7
 800051e:	463c      	mov	r4, r7
 8000520:	46b8      	mov	r8, r7
 8000522:	46be      	mov	lr, r7
 8000524:	2620      	movs	r6, #32
 8000526:	fbb1 f1f7 	udiv	r1, r1, r7
 800052a:	eba2 0208 	sub.w	r2, r2, r8
 800052e:	ea41 410c 	orr.w	r1, r1, ip, lsl #16
 8000532:	e766      	b.n	8000402 <__udivmoddi4+0xfa>
 8000534:	4601      	mov	r1, r0
 8000536:	e718      	b.n	800036a <__udivmoddi4+0x62>
 8000538:	4610      	mov	r0, r2
 800053a:	e72c      	b.n	8000396 <__udivmoddi4+0x8e>
 800053c:	f1c6 0220 	rsb	r2, r6, #32
 8000540:	fa2e f302 	lsr.w	r3, lr, r2
 8000544:	40b7      	lsls	r7, r6
 8000546:	40b1      	lsls	r1, r6
 8000548:	fa20 f202 	lsr.w	r2, r0, r2
 800054c:	ea4f 4e17 	mov.w	lr, r7, lsr #16
 8000550:	430a      	orrs	r2, r1
 8000552:	fbb3 f8fe 	udiv	r8, r3, lr
 8000556:	b2bc      	uxth	r4, r7
 8000558:	fb0e 3318 	mls	r3, lr, r8, r3
 800055c:	0c11      	lsrs	r1, r2, #16
 800055e:	ea41 4103 	orr.w	r1, r1, r3, lsl #16
 8000562:	fb08 f904 	mul.w	r9, r8, r4
 8000566:	40b0      	lsls	r0, r6
 8000568:	4589      	cmp	r9, r1
 800056a:	ea4f 4310 	mov.w	r3, r0, lsr #16
 800056e:	b280      	uxth	r0, r0
 8000570:	d93e      	bls.n	80005f0 <__udivmoddi4+0x2e8>
 8000572:	1879      	adds	r1, r7, r1
 8000574:	f108 3cff 	add.w	ip, r8, #4294967295
 8000578:	d201      	bcs.n	800057e <__udivmoddi4+0x276>
 800057a:	4589      	cmp	r9, r1
 800057c:	d81f      	bhi.n	80005be <__udivmoddi4+0x2b6>
 800057e:	eba1 0109 	sub.w	r1, r1, r9
 8000582:	fbb1 f9fe 	udiv	r9, r1, lr
 8000586:	fb09 f804 	mul.w	r8, r9, r4
 800058a:	fb0e 1119 	mls	r1, lr, r9, r1
 800058e:	b292      	uxth	r2, r2
 8000590:	ea42 4201 	orr.w	r2, r2, r1, lsl #16
 8000594:	4542      	cmp	r2, r8
 8000596:	d229      	bcs.n	80005ec <__udivmoddi4+0x2e4>
 8000598:	18ba      	adds	r2, r7, r2
 800059a:	f109 31ff 	add.w	r1, r9, #4294967295
 800059e:	d2c4      	bcs.n	800052a <__udivmoddi4+0x222>
 80005a0:	4542      	cmp	r2, r8
 80005a2:	d2c2      	bcs.n	800052a <__udivmoddi4+0x222>
 80005a4:	f1a9 0102 	sub.w	r1, r9, #2
 80005a8:	443a      	add	r2, r7
 80005aa:	e7be      	b.n	800052a <__udivmoddi4+0x222>
 80005ac:	45f0      	cmp	r8, lr
 80005ae:	d29d      	bcs.n	80004ec <__udivmoddi4+0x1e4>
 80005b0:	ebbe 0302 	subs.w	r3, lr, r2
 80005b4:	eb6c 0c07 	sbc.w	ip, ip, r7
 80005b8:	3801      	subs	r0, #1
 80005ba:	46e1      	mov	r9, ip
 80005bc:	e796      	b.n	80004ec <__udivmoddi4+0x1e4>
 80005be:	eba7 0909 	sub.w	r9, r7, r9
 80005c2:	4449      	add	r1, r9
 80005c4:	f1a8 0c02 	sub.w	ip, r8, #2
 80005c8:	fbb1 f9fe 	udiv	r9, r1, lr
 80005cc:	fb09 f804 	mul.w	r8, r9, r4
 80005d0:	e7db      	b.n	800058a <__udivmoddi4+0x282>
 80005d2:	4673      	mov	r3, lr
 80005d4:	e77f      	b.n	80004d6 <__udivmoddi4+0x1ce>
 80005d6:	4650      	mov	r0, sl
 80005d8:	e766      	b.n	80004a8 <__udivmoddi4+0x1a0>
 80005da:	4608      	mov	r0, r1
 80005dc:	e6fd      	b.n	80003da <__udivmoddi4+0xd2>
 80005de:	443b      	add	r3, r7
 80005e0:	3a02      	subs	r2, #2
 80005e2:	e733      	b.n	800044c <__udivmoddi4+0x144>
 80005e4:	f1ac 0c02 	sub.w	ip, ip, #2
 80005e8:	443b      	add	r3, r7
 80005ea:	e71c      	b.n	8000426 <__udivmoddi4+0x11e>
 80005ec:	4649      	mov	r1, r9
 80005ee:	e79c      	b.n	800052a <__udivmoddi4+0x222>
 80005f0:	eba1 0109 	sub.w	r1, r1, r9
 80005f4:	46c4      	mov	ip, r8
 80005f6:	fbb1 f9fe 	udiv	r9, r1, lr
 80005fa:	fb09 f804 	mul.w	r8, r9, r4
 80005fe:	e7c4      	b.n	800058a <__udivmoddi4+0x282>

08000600 <__aeabi_idiv0>:
 8000600:	4770      	bx	lr
 8000602:	bf00      	nop

08000604 <MX_FDCAN2_Init>:
 8000604:	4814      	ldr	r0, [pc, #80]	@ (8000658 <MX_FDCAN2_Init+0x54>)
 8000606:	2101      	movs	r1, #1
 8000608:	2232      	movs	r2, #50	@ 0x32
 800060a:	4b14      	ldr	r3, [pc, #80]	@ (800065c <MX_FDCAN2_Init+0x58>)
 800060c:	b510      	push	{r4, lr}
 800060e:	2405      	movs	r4, #5
 8000610:	6003      	str	r3, [r0, #0]
 8000612:	2300      	movs	r3, #0
 8000614:	e9c0 2105 	strd	r2, r1, [r0, #20]
 8000618:	2204      	movs	r2, #4
 800061a:	8203      	strh	r3, [r0, #16]
 800061c:	7483      	strb	r3, [r0, #18]
 800061e:	6343      	str	r3, [r0, #52]	@ 0x34
 8000620:	6682      	str	r2, [r0, #104]	@ 0x68
 8000622:	e9c0 4207 	strd	r4, r2, [r0, #28]
 8000626:	e9c0 4109 	strd	r4, r1, [r0, #36]	@ 0x24
 800062a:	e9c0 420b 	strd	r4, r2, [r0, #44]	@ 0x2c
 800062e:	240a      	movs	r4, #10
 8000630:	e9c0 3302 	strd	r3, r3, [r0, #8]
 8000634:	e9c0 440e 	strd	r4, r4, [r0, #56]	@ 0x38
 8000638:	e9c0 1210 	strd	r1, r2, [r0, #64]	@ 0x40
 800063c:	e9c0 3212 	strd	r3, r2, [r0, #72]	@ 0x48
 8000640:	e9c0 3214 	strd	r3, r2, [r0, #80]	@ 0x50
 8000644:	e9c0 3316 	strd	r3, r3, [r0, #88]	@ 0x58
 8000648:	e9c0 1318 	strd	r1, r3, [r0, #96]	@ 0x60
 800064c:	f001 fa0a 	bl	8001a64 <HAL_FDCAN_Init>
 8000650:	b108      	cbz	r0, 8000656 <MX_FDCAN2_Init+0x52>
 8000652:	b672      	cpsid	i
 8000654:	e7fe      	b.n	8000654 <MX_FDCAN2_Init+0x50>
 8000656:	bd10      	pop	{r4, pc}
 8000658:	24000414 	.word	0x24000414
 800065c:	4000a400 	.word	0x4000a400

08000660 <SystemClock_Config>:
 8000660:	b530      	push	{r4, r5, lr}
 8000662:	b0cd      	sub	sp, #308	@ 0x134
 8000664:	224c      	movs	r2, #76	@ 0x4c
 8000666:	2100      	movs	r1, #0
 8000668:	a80a      	add	r0, sp, #40	@ 0x28
 800066a:	f004 fc94 	bl	8004f96 <memset>
 800066e:	2220      	movs	r2, #32
 8000670:	2100      	movs	r1, #0
 8000672:	a802      	add	r0, sp, #8
 8000674:	f004 fc8f 	bl	8004f96 <memset>
 8000678:	22bc      	movs	r2, #188	@ 0xbc
 800067a:	2100      	movs	r1, #0
 800067c:	a81d      	add	r0, sp, #116	@ 0x74
 800067e:	f004 fc8a 	bl	8004f96 <memset>
 8000682:	2002      	movs	r0, #2
 8000684:	f001 fff0 	bl	8002668 <HAL_PWREx_ConfigSupply>
 8000688:	2300      	movs	r3, #0
 800068a:	9301      	str	r3, [sp, #4]
 800068c:	4b2a      	ldr	r3, [pc, #168]	@ (8000738 <SystemClock_Config+0xd8>)
 800068e:	6ada      	ldr	r2, [r3, #44]	@ 0x2c
 8000690:	f022 0201 	bic.w	r2, r2, #1
 8000694:	62da      	str	r2, [r3, #44]	@ 0x2c
 8000696:	6adb      	ldr	r3, [r3, #44]	@ 0x2c
 8000698:	4a28      	ldr	r2, [pc, #160]	@ (800073c <SystemClock_Config+0xdc>)
 800069a:	f003 0301 	and.w	r3, r3, #1
 800069e:	9301      	str	r3, [sp, #4]
 80006a0:	6993      	ldr	r3, [r2, #24]
 80006a2:	f423 4340 	bic.w	r3, r3, #49152	@ 0xc000
 80006a6:	f443 4380 	orr.w	r3, r3, #16384	@ 0x4000
 80006aa:	6193      	str	r3, [r2, #24]
 80006ac:	6993      	ldr	r3, [r2, #24]
 80006ae:	f403 4340 	and.w	r3, r3, #49152	@ 0xc000
 80006b2:	9301      	str	r3, [sp, #4]
 80006b4:	9b01      	ldr	r3, [sp, #4]
 80006b6:	6993      	ldr	r3, [r2, #24]
 80006b8:	0498      	lsls	r0, r3, #18
 80006ba:	d5fc      	bpl.n	80006b6 <SystemClock_Config+0x56>
 80006bc:	f44f 23a0 	mov.w	r3, #327680	@ 0x50000
 80006c0:	2401      	movs	r4, #1
 80006c2:	2508      	movs	r5, #8
 80006c4:	2119      	movs	r1, #25
 80006c6:	f44f 72c8 	mov.w	r2, #400	@ 0x190
 80006ca:	a80a      	add	r0, sp, #40	@ 0x28
 80006cc:	e9cd 430a 	strd	r4, r3, [sp, #40]	@ 0x28
 80006d0:	2302      	movs	r3, #2
 80006d2:	e9cd 3313 	strd	r3, r3, [sp, #76]	@ 0x4c
 80006d6:	9317      	str	r3, [sp, #92]	@ 0x5c
 80006d8:	2304      	movs	r3, #4
 80006da:	e9cd 5318 	strd	r5, r3, [sp, #96]	@ 0x60
 80006de:	2300      	movs	r3, #0
 80006e0:	e9cd 1215 	strd	r1, r2, [sp, #84]	@ 0x54
 80006e4:	e9cd 331a 	strd	r3, r3, [sp, #104]	@ 0x68
 80006e8:	931c      	str	r3, [sp, #112]	@ 0x70
 80006ea:	f001 ffe1 	bl	80026b0 <HAL_RCC_OscConfig>
 80006ee:	b108      	cbz	r0, 80006f4 <SystemClock_Config+0x94>
 80006f0:	b672      	cpsid	i
 80006f2:	e7fe      	b.n	80006f2 <SystemClock_Config+0x92>
 80006f4:	223f      	movs	r2, #63	@ 0x3f
 80006f6:	2303      	movs	r3, #3
 80006f8:	4621      	mov	r1, r4
 80006fa:	e9cd 0504 	strd	r0, r5, [sp, #16]
 80006fe:	e9cd 0006 	strd	r0, r0, [sp, #24]
 8000702:	e9cd 0008 	strd	r0, r0, [sp, #32]
 8000706:	a802      	add	r0, sp, #8
 8000708:	e9cd 2302 	strd	r2, r3, [sp, #8]
 800070c:	f002 fb02 	bl	8002d14 <HAL_RCC_ClockConfig>
 8000710:	b108      	cbz	r0, 8000716 <SystemClock_Config+0xb6>
 8000712:	b672      	cpsid	i
 8000714:	e7fe      	b.n	8000714 <SystemClock_Config+0xb4>
 8000716:	f24a 0303 	movw	r3, #40963	@ 0xa003
 800071a:	9035      	str	r0, [sp, #212]	@ 0xd4
 800071c:	931d      	str	r3, [sp, #116]	@ 0x74
 800071e:	f04f 5380 	mov.w	r3, #268435456	@ 0x10000000
 8000722:	e9cd 003a 	strd	r0, r0, [sp, #232]	@ 0xe8
 8000726:	a81d      	add	r0, sp, #116	@ 0x74
 8000728:	9338      	str	r3, [sp, #224]	@ 0xe0
 800072a:	f002 fd4b 	bl	80031c4 <HAL_RCCEx_PeriphCLKConfig>
 800072e:	b108      	cbz	r0, 8000734 <SystemClock_Config+0xd4>
 8000730:	b672      	cpsid	i
 8000732:	e7fe      	b.n	8000732 <SystemClock_Config+0xd2>
 8000734:	b04d      	add	sp, #308	@ 0x134
 8000736:	bd30      	pop	{r4, r5, pc}
 8000738:	58000400 	.word	0x58000400
 800073c:	58024800 	.word	0x58024800

08000740 <clear_allclick_flag>:
 8000740:	2300      	movs	r3, #0
 8000742:	4a03      	ldr	r2, [pc, #12]	@ (8000750 <clear_allclick_flag+0x10>)
 8000744:	7013      	strb	r3, [r2, #0]
 8000746:	4a03      	ldr	r2, [pc, #12]	@ (8000754 <clear_allclick_flag+0x14>)
 8000748:	7013      	strb	r3, [r2, #0]
 800074a:	4a03      	ldr	r2, [pc, #12]	@ (8000758 <clear_allclick_flag+0x18>)
 800074c:	7013      	strb	r3, [r2, #0]
 800074e:	4770      	bx	lr
 8000750:	2400004a 	.word	0x2400004a
 8000754:	24000049 	.word	0x24000049
 8000758:	24000048 	.word	0x24000048

0800075c <green_light>:
 800075c:	2200      	movs	r2, #0
 800075e:	f44f 6100 	mov.w	r1, #2048	@ 0x800
 8000762:	4805      	ldr	r0, [pc, #20]	@ (8000778 <green_light+0x1c>)
 8000764:	b508      	push	{r3, lr}
 8000766:	f001 ff73 	bl	8002650 <HAL_GPIO_WritePin>
 800076a:	2300      	movs	r3, #0
 800076c:	4a03      	ldr	r2, [pc, #12]	@ (800077c <green_light+0x20>)
 800076e:	7013      	strb	r3, [r2, #0]
 8000770:	4a03      	ldr	r2, [pc, #12]	@ (8000780 <green_light+0x24>)
 8000772:	7013      	strb	r3, [r2, #0]
 8000774:	bd08      	pop	{r3, pc}
 8000776:	bf00      	nop
 8000778:	58020000 	.word	0x58020000
 800077c:	24000045 	.word	0x24000045
 8000780:	24000046 	.word	0x24000046

08000784 <S1_stop_action>:
 8000784:	b508      	push	{r3, lr}
 8000786:	2201      	movs	r2, #1
 8000788:	f44f 6180 	mov.w	r1, #1024	@ 0x400
 800078c:	480b      	ldr	r0, [pc, #44]	@ (80007bc <S1_stop_action+0x38>)
 800078e:	f001 ff5f 	bl	8002650 <HAL_GPIO_WritePin>
 8000792:	f7ff ffe3 	bl	800075c <green_light>
 8000796:	4b0a      	ldr	r3, [pc, #40]	@ (80007c0 <S1_stop_action+0x3c>)
 8000798:	781b      	ldrb	r3, [r3, #0]
 800079a:	2b01      	cmp	r3, #1
 800079c:	d104      	bne.n	80007a8 <S1_stop_action+0x24>
 800079e:	f7ff ffcf 	bl	8000740 <clear_allclick_flag>
 80007a2:	4b08      	ldr	r3, [pc, #32]	@ (80007c4 <S1_stop_action+0x40>)
 80007a4:	2204      	movs	r2, #4
 80007a6:	701a      	strb	r2, [r3, #0]
 80007a8:	4b07      	ldr	r3, [pc, #28]	@ (80007c8 <S1_stop_action+0x44>)
 80007aa:	7819      	ldrb	r1, [r3, #0]
 80007ac:	2901      	cmp	r1, #1
 80007ae:	d103      	bne.n	80007b8 <S1_stop_action+0x34>
 80007b0:	f7ff ffc6 	bl	8000740 <clear_allclick_flag>
 80007b4:	4b03      	ldr	r3, [pc, #12]	@ (80007c4 <S1_stop_action+0x40>)
 80007b6:	7019      	strb	r1, [r3, #0]
 80007b8:	bd08      	pop	{r3, pc}
 80007ba:	bf00      	nop
 80007bc:	58020400 	.word	0x58020400
 80007c0:	2400004a 	.word	0x2400004a
 80007c4:	24000006 	.word	0x24000006
 80007c8:	24000048 	.word	0x24000048

080007cc <red_light>:
 80007cc:	2201      	movs	r2, #1
 80007ce:	f44f 6100 	mov.w	r1, #2048	@ 0x800
 80007d2:	4805      	ldr	r0, [pc, #20]	@ (80007e8 <red_light+0x1c>)
 80007d4:	b508      	push	{r3, lr}
 80007d6:	f001 ff3b 	bl	8002650 <HAL_GPIO_WritePin>
 80007da:	2300      	movs	r3, #0
 80007dc:	4a03      	ldr	r2, [pc, #12]	@ (80007ec <red_light+0x20>)
 80007de:	7013      	strb	r3, [r2, #0]
 80007e0:	4a03      	ldr	r2, [pc, #12]	@ (80007f0 <red_light+0x24>)
 80007e2:	7013      	strb	r3, [r2, #0]
 80007e4:	bd08      	pop	{r3, pc}
 80007e6:	bf00      	nop
 80007e8:	58020000 	.word	0x58020000
 80007ec:	24000045 	.word	0x24000045
 80007f0:	24000046 	.word	0x24000046

080007f4 <S0_idle_action>:
 80007f4:	b508      	push	{r3, lr}
 80007f6:	2200      	movs	r2, #0
 80007f8:	f44f 6180 	mov.w	r1, #1024	@ 0x400
 80007fc:	4807      	ldr	r0, [pc, #28]	@ (800081c <S0_idle_action+0x28>)
 80007fe:	f001 ff27 	bl	8002650 <HAL_GPIO_WritePin>
 8000802:	f7ff ffe3 	bl	80007cc <red_light>
 8000806:	4b06      	ldr	r3, [pc, #24]	@ (8000820 <S0_idle_action+0x2c>)
 8000808:	781b      	ldrb	r3, [r3, #0]
 800080a:	2b01      	cmp	r3, #1
 800080c:	d104      	bne.n	8000818 <S0_idle_action+0x24>
 800080e:	f7ff ff97 	bl	8000740 <clear_allclick_flag>
 8000812:	4b04      	ldr	r3, [pc, #16]	@ (8000824 <S0_idle_action+0x30>)
 8000814:	2202      	movs	r2, #2
 8000816:	701a      	strb	r2, [r3, #0]
 8000818:	bd08      	pop	{r3, pc}
 800081a:	bf00      	nop
 800081c:	58020400 	.word	0x58020400
 8000820:	2400004a 	.word	0x2400004a
 8000824:	24000006 	.word	0x24000006

08000828 <green_twinkle>:
 8000828:	4b03      	ldr	r3, [pc, #12]	@ (8000838 <green_twinkle+0x10>)
 800082a:	2200      	movs	r2, #0
 800082c:	701a      	strb	r2, [r3, #0]
 800082e:	2201      	movs	r2, #1
 8000830:	4b02      	ldr	r3, [pc, #8]	@ (800083c <green_twinkle+0x14>)
 8000832:	701a      	strb	r2, [r3, #0]
 8000834:	4770      	bx	lr
 8000836:	bf00      	nop
 8000838:	24000045 	.word	0x24000045
 800083c:	24000046 	.word	0x24000046

08000840 <S2_run_action>:
 8000840:	b508      	push	{r3, lr}
 8000842:	2110      	movs	r1, #16
 8000844:	4804      	ldr	r0, [pc, #16]	@ (8000858 <S2_run_action+0x18>)
 8000846:	f7ff ffef 	bl	8000828 <green_twinkle>
 800084a:	f001 fefb 	bl	8002644 <HAL_GPIO_ReadPin>
 800084e:	b910      	cbnz	r0, 8000856 <S2_run_action+0x16>
 8000850:	4b02      	ldr	r3, [pc, #8]	@ (800085c <S2_run_action+0x1c>)
 8000852:	2202      	movs	r2, #2
 8000854:	701a      	strb	r2, [r3, #0]
 8000856:	bd08      	pop	{r3, pc}
 8000858:	58020c00 	.word	0x58020c00
 800085c:	24000006 	.word	0x24000006

08000860 <advance>:
 8000860:	4b07      	ldr	r3, [pc, #28]	@ (8000880 <advance+0x20>)
 8000862:	781b      	ldrb	r3, [r3, #0]
 8000864:	2b02      	cmp	r3, #2
 8000866:	d005      	beq.n	8000874 <advance+0x14>
 8000868:	2b04      	cmp	r3, #4
 800086a:	d005      	beq.n	8000878 <advance+0x18>
 800086c:	2b01      	cmp	r3, #1
 800086e:	d105      	bne.n	800087c <advance+0x1c>
 8000870:	f7ff bfc0 	b.w	80007f4 <S0_idle_action>
 8000874:	f7ff bf86 	b.w	8000784 <S1_stop_action>
 8000878:	f7ff bfe2 	b.w	8000840 <S2_run_action>
 800087c:	4770      	bx	lr
 800087e:	bf00      	nop
 8000880:	24000006 	.word	0x24000006

08000884 <FDCAN2_Config>:
 8000884:	b530      	push	{r4, r5, lr}
 8000886:	f04f 4280 	mov.w	r2, #1073741824	@ 0x40000000
 800088a:	b08b      	sub	sp, #44	@ 0x2c
 800088c:	2300      	movs	r3, #0
 800088e:	f644 6120 	movw	r1, #20000	@ 0x4e20
 8000892:	2502      	movs	r5, #2
 8000894:	2401      	movs	r4, #1
 8000896:	4814      	ldr	r0, [pc, #80]	@ (80008e8 <FDCAN2_Config+0x64>)
 8000898:	e9cd 2302 	strd	r2, r3, [sp, #8]
 800089c:	23ff      	movs	r3, #255	@ 0xff
 800089e:	e9cd 1306 	strd	r1, r3, [sp, #24]
 80008a2:	a902      	add	r1, sp, #8
 80008a4:	e9cd 5404 	strd	r5, r4, [sp, #16]
 80008a8:	f001 fac6 	bl	8001e38 <HAL_FDCAN_ConfigFilter>
 80008ac:	4603      	mov	r3, r0
 80008ae:	b108      	cbz	r0, 80008b4 <FDCAN2_Config+0x30>
 80008b0:	b672      	cpsid	i
 80008b2:	e7fe      	b.n	80008b2 <FDCAN2_Config+0x2e>
 80008b4:	9000      	str	r0, [sp, #0]
 80008b6:	462a      	mov	r2, r5
 80008b8:	4629      	mov	r1, r5
 80008ba:	480b      	ldr	r0, [pc, #44]	@ (80008e8 <FDCAN2_Config+0x64>)
 80008bc:	f001 faf8 	bl	8001eb0 <HAL_FDCAN_ConfigGlobalFilter>
 80008c0:	b108      	cbz	r0, 80008c6 <FDCAN2_Config+0x42>
 80008c2:	b672      	cpsid	i
 80008c4:	e7fe      	b.n	80008c4 <FDCAN2_Config+0x40>
 80008c6:	4808      	ldr	r0, [pc, #32]	@ (80008e8 <FDCAN2_Config+0x64>)
 80008c8:	f001 fb0b 	bl	8001ee2 <HAL_FDCAN_Start>
 80008cc:	4602      	mov	r2, r0
 80008ce:	b108      	cbz	r0, 80008d4 <FDCAN2_Config+0x50>
 80008d0:	b672      	cpsid	i
 80008d2:	e7fe      	b.n	80008d2 <FDCAN2_Config+0x4e>
 80008d4:	4621      	mov	r1, r4
 80008d6:	4804      	ldr	r0, [pc, #16]	@ (80008e8 <FDCAN2_Config+0x64>)
 80008d8:	f001 fc26 	bl	8002128 <HAL_FDCAN_ActivateNotification>
 80008dc:	b108      	cbz	r0, 80008e2 <FDCAN2_Config+0x5e>
 80008de:	b672      	cpsid	i
 80008e0:	e7fe      	b.n	80008e0 <FDCAN2_Config+0x5c>
 80008e2:	b00b      	add	sp, #44	@ 0x2c
 80008e4:	bd30      	pop	{r4, r5, pc}
 80008e6:	bf00      	nop
 80008e8:	24000414 	.word	0x24000414

080008ec <CAN2_MESSAGE_TX>:
 80008ec:	490a      	ldr	r1, [pc, #40]	@ (8000918 <CAN2_MESSAGE_TX+0x2c>)
 80008ee:	f04f 4380 	mov.w	r3, #1073741824	@ 0x40000000
 80008f2:	4602      	mov	r2, r0
 80008f4:	f644 6020 	movw	r0, #20000	@ 0x4e20
 80008f8:	e9c1 0300 	strd	r0, r3, [r1]
 80008fc:	2300      	movs	r3, #0
 80008fe:	f44f 2000 	mov.w	r0, #524288	@ 0x80000
 8000902:	e9c1 3002 	strd	r3, r0, [r1, #8]
 8000906:	4805      	ldr	r0, [pc, #20]	@ (800091c <CAN2_MESSAGE_TX+0x30>)
 8000908:	620b      	str	r3, [r1, #32]
 800090a:	e9c1 3304 	strd	r3, r3, [r1, #16]
 800090e:	e9c1 3306 	strd	r3, r3, [r1, #24]
 8000912:	f001 baff 	b.w	8001f14 <HAL_FDCAN_AddMessageToTxFifoQ>
 8000916:	bf00      	nop
 8000918:	24000088 	.word	0x24000088
 800091c:	24000414 	.word	0x24000414

08000920 <decode>:
 8000920:	2904      	cmp	r1, #4
 8000922:	b510      	push	{r4, lr}
 8000924:	4604      	mov	r4, r0
 8000926:	d118      	bne.n	800095a <decode+0x3a>
 8000928:	7802      	ldrb	r2, [r0, #0]
 800092a:	b17a      	cbz	r2, 800094c <decode+0x2c>
 800092c:	2201      	movs	r2, #1
 800092e:	f44f 6100 	mov.w	r1, #2048	@ 0x800
 8000932:	480a      	ldr	r0, [pc, #40]	@ (800095c <decode+0x3c>)
 8000934:	f001 fe8c 	bl	8002650 <HAL_GPIO_WritePin>
 8000938:	2200      	movs	r2, #0
 800093a:	4809      	ldr	r0, [pc, #36]	@ (8000960 <decode+0x40>)
 800093c:	2110      	movs	r1, #16
 800093e:	f001 fe87 	bl	8002650 <HAL_GPIO_WritePin>
 8000942:	1c60      	adds	r0, r4, #1
 8000944:	e8bd 4010 	ldmia.w	sp!, {r4, lr}
 8000948:	f7ff bfd0 	b.w	80008ec <CAN2_MESSAGE_TX>
 800094c:	f44f 6100 	mov.w	r1, #2048	@ 0x800
 8000950:	4802      	ldr	r0, [pc, #8]	@ (800095c <decode+0x3c>)
 8000952:	f001 fe7d 	bl	8002650 <HAL_GPIO_WritePin>
 8000956:	2201      	movs	r2, #1
 8000958:	e7ef      	b.n	800093a <decode+0x1a>
 800095a:	bd10      	pop	{r4, pc}
 800095c:	58020000 	.word	0x58020000
 8000960:	58020400 	.word	0x58020400

08000964 <HAL_UART_RxCpltCallback>:
 8000964:	b538      	push	{r3, r4, r5, lr}
 8000966:	4b1c      	ldr	r3, [pc, #112]	@ (80009d8 <HAL_UART_RxCpltCallback+0x74>)
 8000968:	6802      	ldr	r2, [r0, #0]
 800096a:	681b      	ldr	r3, [r3, #0]
 800096c:	429a      	cmp	r2, r3
 800096e:	d112      	bne.n	8000996 <HAL_UART_RxCpltCallback+0x32>
 8000970:	4a1a      	ldr	r2, [pc, #104]	@ (80009dc <HAL_UART_RxCpltCallback+0x78>)
 8000972:	4b1b      	ldr	r3, [pc, #108]	@ (80009e0 <HAL_UART_RxCpltCallback+0x7c>)
 8000974:	7810      	ldrb	r0, [r2, #0]
 8000976:	781b      	ldrb	r3, [r3, #0]
 8000978:	b1f0      	cbz	r0, 80009b8 <HAL_UART_RxCpltCallback+0x54>
 800097a:	2400      	movs	r4, #0
 800097c:	2bfe      	cmp	r3, #254	@ 0xfe
 800097e:	7014      	strb	r4, [r2, #0]
 8000980:	d013      	beq.n	80009aa <HAL_UART_RxCpltCallback+0x46>
 8000982:	2bff      	cmp	r3, #255	@ 0xff
 8000984:	d00e      	beq.n	80009a4 <HAL_UART_RxCpltCallback+0x40>
 8000986:	b933      	cbnz	r3, 8000996 <HAL_UART_RxCpltCallback+0x32>
 8000988:	4a16      	ldr	r2, [pc, #88]	@ (80009e4 <HAL_UART_RxCpltCallback+0x80>)
 800098a:	7813      	ldrb	r3, [r2, #0]
 800098c:	1c59      	adds	r1, r3, #1
 800098e:	7011      	strb	r1, [r2, #0]
 8000990:	2180      	movs	r1, #128	@ 0x80
 8000992:	4a15      	ldr	r2, [pc, #84]	@ (80009e8 <HAL_UART_RxCpltCallback+0x84>)
 8000994:	54d1      	strb	r1, [r2, r3]
 8000996:	2201      	movs	r2, #1
 8000998:	4911      	ldr	r1, [pc, #68]	@ (80009e0 <HAL_UART_RxCpltCallback+0x7c>)
 800099a:	480f      	ldr	r0, [pc, #60]	@ (80009d8 <HAL_UART_RxCpltCallback+0x74>)
 800099c:	e8bd 4038 	ldmia.w	sp!, {r3, r4, r5, lr}
 80009a0:	f003 bce4 	b.w	800436c <HAL_UART_Receive_IT>
 80009a4:	4b0f      	ldr	r3, [pc, #60]	@ (80009e4 <HAL_UART_RxCpltCallback+0x80>)
 80009a6:	701c      	strb	r4, [r3, #0]
 80009a8:	e7f5      	b.n	8000996 <HAL_UART_RxCpltCallback+0x32>
 80009aa:	4d0e      	ldr	r5, [pc, #56]	@ (80009e4 <HAL_UART_RxCpltCallback+0x80>)
 80009ac:	480e      	ldr	r0, [pc, #56]	@ (80009e8 <HAL_UART_RxCpltCallback+0x84>)
 80009ae:	7829      	ldrb	r1, [r5, #0]
 80009b0:	f7ff ffb6 	bl	8000920 <decode>
 80009b4:	702c      	strb	r4, [r5, #0]
 80009b6:	e7ee      	b.n	8000996 <HAL_UART_RxCpltCallback+0x32>
 80009b8:	2b80      	cmp	r3, #128	@ 0x80
 80009ba:	d102      	bne.n	80009c2 <HAL_UART_RxCpltCallback+0x5e>
 80009bc:	2301      	movs	r3, #1
 80009be:	7013      	strb	r3, [r2, #0]
 80009c0:	e7e9      	b.n	8000996 <HAL_UART_RxCpltCallback+0x32>
 80009c2:	4908      	ldr	r1, [pc, #32]	@ (80009e4 <HAL_UART_RxCpltCallback+0x80>)
 80009c4:	4d08      	ldr	r5, [pc, #32]	@ (80009e8 <HAL_UART_RxCpltCallback+0x84>)
 80009c6:	780c      	ldrb	r4, [r1, #0]
 80009c8:	1c62      	adds	r2, r4, #1
 80009ca:	552b      	strb	r3, [r5, r4]
 80009cc:	b2d2      	uxtb	r2, r2
 80009ce:	2a0f      	cmp	r2, #15
 80009d0:	700a      	strb	r2, [r1, #0]
 80009d2:	bf88      	it	hi
 80009d4:	7008      	strbhi	r0, [r1, #0]
 80009d6:	e7de      	b.n	8000996 <HAL_UART_RxCpltCallback+0x32>
 80009d8:	240000c4 	.word	0x240000c4
 80009dc:	24000044 	.word	0x24000044
 80009e0:	240000c1 	.word	0x240000c1
 80009e4:	240000ac 	.word	0x240000ac
 80009e8:	240000ad 	.word	0x240000ad

080009ec <HAL_FDCAN_RxFifo0Callback>:
 80009ec:	07ca      	lsls	r2, r1, #31
 80009ee:	b5f8      	push	{r3, r4, r5, r6, r7, lr}
 80009f0:	f140 809a 	bpl.w	8000b28 <HAL_FDCAN_RxFifo0Callback+0x13c>
 80009f4:	4a4d      	ldr	r2, [pc, #308]	@ (8000b2c <HAL_FDCAN_RxFifo0Callback+0x140>)
 80009f6:	4290      	cmp	r0, r2
 80009f8:	f040 8096 	bne.w	8000b28 <HAL_FDCAN_RxFifo0Callback+0x13c>
 80009fc:	4b4c      	ldr	r3, [pc, #304]	@ (8000b30 <HAL_FDCAN_RxFifo0Callback+0x144>)
 80009fe:	2140      	movs	r1, #64	@ 0x40
 8000a00:	4a4c      	ldr	r2, [pc, #304]	@ (8000b34 <HAL_FDCAN_RxFifo0Callback+0x148>)
 8000a02:	f001 fab9 	bl	8001f78 <HAL_FDCAN_GetRxMessage>
 8000a06:	4c4c      	ldr	r4, [pc, #304]	@ (8000b38 <HAL_FDCAN_RxFifo0Callback+0x14c>)
 8000a08:	f64f 73ff 	movw	r3, #65535	@ 0xffff
 8000a0c:	2202      	movs	r2, #2
 8000a0e:	494b      	ldr	r1, [pc, #300]	@ (8000b3c <HAL_FDCAN_RxFifo0Callback+0x150>)
 8000a10:	484b      	ldr	r0, [pc, #300]	@ (8000b40 <HAL_FDCAN_RxFifo0Callback+0x154>)
 8000a12:	f004 f92f 	bl	8004c74 <HAL_UART_Transmit>
 8000a16:	2180      	movs	r1, #128	@ 0x80
 8000a18:	484a      	ldr	r0, [pc, #296]	@ (8000b44 <HAL_FDCAN_RxFifo0Callback+0x158>)
 8000a1a:	f001 fe13 	bl	8002644 <HAL_GPIO_ReadPin>
 8000a1e:	7823      	ldrb	r3, [r4, #0]
 8000a20:	2800      	cmp	r0, #0
 8000a22:	d16c      	bne.n	8000afe <HAL_FDCAN_RxFifo0Callback+0x112>
 8000a24:	f003 03fe 	and.w	r3, r3, #254	@ 0xfe
 8000a28:	2110      	movs	r1, #16
 8000a2a:	4846      	ldr	r0, [pc, #280]	@ (8000b44 <HAL_FDCAN_RxFifo0Callback+0x158>)
 8000a2c:	7023      	strb	r3, [r4, #0]
 8000a2e:	f001 fe09 	bl	8002644 <HAL_GPIO_ReadPin>
 8000a32:	7823      	ldrb	r3, [r4, #0]
 8000a34:	2800      	cmp	r0, #0
 8000a36:	d165      	bne.n	8000b04 <HAL_FDCAN_RxFifo0Callback+0x118>
 8000a38:	f003 03fd 	and.w	r3, r3, #253	@ 0xfd
 8000a3c:	2101      	movs	r1, #1
 8000a3e:	4841      	ldr	r0, [pc, #260]	@ (8000b44 <HAL_FDCAN_RxFifo0Callback+0x158>)
 8000a40:	7023      	strb	r3, [r4, #0]
 8000a42:	f001 fdff 	bl	8002644 <HAL_GPIO_ReadPin>
 8000a46:	7823      	ldrb	r3, [r4, #0]
 8000a48:	2800      	cmp	r0, #0
 8000a4a:	d15e      	bne.n	8000b0a <HAL_FDCAN_RxFifo0Callback+0x11e>
 8000a4c:	f003 03fb 	and.w	r3, r3, #251	@ 0xfb
 8000a50:	f44f 7180 	mov.w	r1, #256	@ 0x100
 8000a54:	483c      	ldr	r0, [pc, #240]	@ (8000b48 <HAL_FDCAN_RxFifo0Callback+0x15c>)
 8000a56:	7023      	strb	r3, [r4, #0]
 8000a58:	f001 fdf4 	bl	8002644 <HAL_GPIO_ReadPin>
 8000a5c:	7823      	ldrb	r3, [r4, #0]
 8000a5e:	2800      	cmp	r0, #0
 8000a60:	d156      	bne.n	8000b10 <HAL_FDCAN_RxFifo0Callback+0x124>
 8000a62:	f003 03f7 	and.w	r3, r3, #247	@ 0xf7
 8000a66:	f44f 5100 	mov.w	r1, #8192	@ 0x2000
 8000a6a:	4838      	ldr	r0, [pc, #224]	@ (8000b4c <HAL_FDCAN_RxFifo0Callback+0x160>)
 8000a6c:	7023      	strb	r3, [r4, #0]
 8000a6e:	f001 fde9 	bl	8002644 <HAL_GPIO_ReadPin>
 8000a72:	7823      	ldrb	r3, [r4, #0]
 8000a74:	2800      	cmp	r0, #0
 8000a76:	d14e      	bne.n	8000b16 <HAL_FDCAN_RxFifo0Callback+0x12a>
 8000a78:	f003 03ef 	and.w	r3, r3, #239	@ 0xef
 8000a7c:	f44f 7100 	mov.w	r1, #512	@ 0x200
 8000a80:	4830      	ldr	r0, [pc, #192]	@ (8000b44 <HAL_FDCAN_RxFifo0Callback+0x158>)
 8000a82:	7023      	strb	r3, [r4, #0]
 8000a84:	f001 fdde 	bl	8002644 <HAL_GPIO_ReadPin>
 8000a88:	7823      	ldrb	r3, [r4, #0]
 8000a8a:	2800      	cmp	r0, #0
 8000a8c:	d146      	bne.n	8000b1c <HAL_FDCAN_RxFifo0Callback+0x130>
 8000a8e:	f003 03df 	and.w	r3, r3, #223	@ 0xdf
 8000a92:	f44f 5180 	mov.w	r1, #4096	@ 0x1000
 8000a96:	482b      	ldr	r0, [pc, #172]	@ (8000b44 <HAL_FDCAN_RxFifo0Callback+0x158>)
 8000a98:	7023      	strb	r3, [r4, #0]
 8000a9a:	f001 fdd3 	bl	8002644 <HAL_GPIO_ReadPin>
 8000a9e:	7823      	ldrb	r3, [r4, #0]
 8000aa0:	2800      	cmp	r0, #0
 8000aa2:	d13e      	bne.n	8000b22 <HAL_FDCAN_RxFifo0Callback+0x136>
 8000aa4:	f003 03bf 	and.w	r3, r3, #191	@ 0xbf
 8000aa8:	7023      	strb	r3, [r4, #0]
 8000aaa:	2500      	movs	r5, #0
 8000aac:	4c20      	ldr	r4, [pc, #128]	@ (8000b30 <HAL_FDCAN_RxFifo0Callback+0x144>)
 8000aae:	f64f 73ff 	movw	r3, #65535	@ 0xffff
 8000ab2:	4e23      	ldr	r6, [pc, #140]	@ (8000b40 <HAL_FDCAN_RxFifo0Callback+0x154>)
 8000ab4:	2201      	movs	r2, #1
 8000ab6:	4f26      	ldr	r7, [pc, #152]	@ (8000b50 <HAL_FDCAN_RxFifo0Callback+0x164>)
 8000ab8:	491f      	ldr	r1, [pc, #124]	@ (8000b38 <HAL_FDCAN_RxFifo0Callback+0x14c>)
 8000aba:	4821      	ldr	r0, [pc, #132]	@ (8000b40 <HAL_FDCAN_RxFifo0Callback+0x154>)
 8000abc:	f004 f8da 	bl	8004c74 <HAL_UART_Transmit>
 8000ac0:	7823      	ldrb	r3, [r4, #0]
 8000ac2:	3501      	adds	r5, #1
 8000ac4:	4630      	mov	r0, r6
 8000ac6:	2b80      	cmp	r3, #128	@ 0x80
 8000ac8:	f64f 73ff 	movw	r3, #65535	@ 0xffff
 8000acc:	bf13      	iteet	ne
 8000ace:	4621      	movne	r1, r4
 8000ad0:	2202      	moveq	r2, #2
 8000ad2:	4639      	moveq	r1, r7
 8000ad4:	2201      	movne	r2, #1
 8000ad6:	f004 f8cd 	bl	8004c74 <HAL_UART_Transmit>
 8000ada:	2d03      	cmp	r5, #3
 8000adc:	f104 0401 	add.w	r4, r4, #1
 8000ae0:	d1ee      	bne.n	8000ac0 <HAL_FDCAN_RxFifo0Callback+0xd4>
 8000ae2:	f64f 73ff 	movw	r3, #65535	@ 0xffff
 8000ae6:	2202      	movs	r2, #2
 8000ae8:	491a      	ldr	r1, [pc, #104]	@ (8000b54 <HAL_FDCAN_RxFifo0Callback+0x168>)
 8000aea:	4815      	ldr	r0, [pc, #84]	@ (8000b40 <HAL_FDCAN_RxFifo0Callback+0x154>)
 8000aec:	f004 f8c2 	bl	8004c74 <HAL_UART_Transmit>
 8000af0:	2200      	movs	r2, #0
 8000af2:	2101      	movs	r1, #1
 8000af4:	480d      	ldr	r0, [pc, #52]	@ (8000b2c <HAL_FDCAN_RxFifo0Callback+0x140>)
 8000af6:	e8bd 40f8 	ldmia.w	sp!, {r3, r4, r5, r6, r7, lr}
 8000afa:	f001 bb15 	b.w	8002128 <HAL_FDCAN_ActivateNotification>
 8000afe:	f043 0301 	orr.w	r3, r3, #1
 8000b02:	e791      	b.n	8000a28 <HAL_FDCAN_RxFifo0Callback+0x3c>
 8000b04:	f043 0302 	orr.w	r3, r3, #2
 8000b08:	e798      	b.n	8000a3c <HAL_FDCAN_RxFifo0Callback+0x50>
 8000b0a:	f043 0304 	orr.w	r3, r3, #4
 8000b0e:	e79f      	b.n	8000a50 <HAL_FDCAN_RxFifo0Callback+0x64>
 8000b10:	f043 0308 	orr.w	r3, r3, #8
 8000b14:	e7a7      	b.n	8000a66 <HAL_FDCAN_RxFifo0Callback+0x7a>
 8000b16:	f043 0310 	orr.w	r3, r3, #16
 8000b1a:	e7af      	b.n	8000a7c <HAL_FDCAN_RxFifo0Callback+0x90>
 8000b1c:	f043 0320 	orr.w	r3, r3, #32
 8000b20:	e7b7      	b.n	8000a92 <HAL_FDCAN_RxFifo0Callback+0xa6>
 8000b22:	f043 0340 	orr.w	r3, r3, #64	@ 0x40
 8000b26:	e7bf      	b.n	8000aa8 <HAL_FDCAN_RxFifo0Callback+0xbc>
 8000b28:	bdf8      	pop	{r3, r4, r5, r6, r7, pc}
 8000b2a:	bf00      	nop
 8000b2c:	24000414 	.word	0x24000414
 8000b30:	24000058 	.word	0x24000058
 8000b34:	24000060 	.word	0x24000060
 8000b38:	24000047 	.word	0x24000047
 8000b3c:	24000004 	.word	0x24000004
 8000b40:	240000c4 	.word	0x240000c4
 8000b44:	58020c00 	.word	0x58020c00
 8000b48:	58020000 	.word	0x58020000
 8000b4c:	58020400 	.word	0x58020400
 8000b50:	24000000 	.word	0x24000000
 8000b54:	24000002 	.word	0x24000002

08000b58 <HAL_TIM_PeriodElapsedCallback>:
 8000b58:	4b20      	ldr	r3, [pc, #128]	@ (8000bdc <HAL_TIM_PeriodElapsedCallback+0x84>)
 8000b5a:	4298      	cmp	r0, r3
 8000b5c:	b510      	push	{r4, lr}
 8000b5e:	d106      	bne.n	8000b6e <HAL_TIM_PeriodElapsedCallback+0x16>
 8000b60:	f44f 5100 	mov.w	r1, #8192	@ 0x2000
 8000b64:	481e      	ldr	r0, [pc, #120]	@ (8000be0 <HAL_TIM_PeriodElapsedCallback+0x88>)
 8000b66:	e8bd 4010 	ldmia.w	sp!, {r4, lr}
 8000b6a:	f001 bd76 	b.w	800265a <HAL_GPIO_TogglePin>
 8000b6e:	4b1d      	ldr	r3, [pc, #116]	@ (8000be4 <HAL_TIM_PeriodElapsedCallback+0x8c>)
 8000b70:	4298      	cmp	r0, r3
 8000b72:	d131      	bne.n	8000bd8 <HAL_TIM_PeriodElapsedCallback+0x80>
 8000b74:	4a1c      	ldr	r2, [pc, #112]	@ (8000be8 <HAL_TIM_PeriodElapsedCallback+0x90>)
 8000b76:	6813      	ldr	r3, [r2, #0]
 8000b78:	3301      	adds	r3, #1
 8000b7a:	f5b3 7ffa 	cmp.w	r3, #500	@ 0x1f4
 8000b7e:	bf08      	it	eq
 8000b80:	2300      	moveq	r3, #0
 8000b82:	6013      	str	r3, [r2, #0]
 8000b84:	4b19      	ldr	r3, [pc, #100]	@ (8000bec <HAL_TIM_PeriodElapsedCallback+0x94>)
 8000b86:	781b      	ldrb	r3, [r3, #0]
 8000b88:	2b01      	cmp	r3, #1
 8000b8a:	d10d      	bne.n	8000ba8 <HAL_TIM_PeriodElapsedCallback+0x50>
 8000b8c:	4c18      	ldr	r4, [pc, #96]	@ (8000bf0 <HAL_TIM_PeriodElapsedCallback+0x98>)
 8000b8e:	6823      	ldr	r3, [r4, #0]
 8000b90:	3301      	adds	r3, #1
 8000b92:	f5b3 7f96 	cmp.w	r3, #300	@ 0x12c
 8000b96:	6023      	str	r3, [r4, #0]
 8000b98:	d106      	bne.n	8000ba8 <HAL_TIM_PeriodElapsedCallback+0x50>
 8000b9a:	f44f 6100 	mov.w	r1, #2048	@ 0x800
 8000b9e:	4815      	ldr	r0, [pc, #84]	@ (8000bf4 <HAL_TIM_PeriodElapsedCallback+0x9c>)
 8000ba0:	f001 fd5b 	bl	800265a <HAL_GPIO_TogglePin>
 8000ba4:	2300      	movs	r3, #0
 8000ba6:	6023      	str	r3, [r4, #0]
 8000ba8:	4b13      	ldr	r3, [pc, #76]	@ (8000bf8 <HAL_TIM_PeriodElapsedCallback+0xa0>)
 8000baa:	781b      	ldrb	r3, [r3, #0]
 8000bac:	2b01      	cmp	r3, #1
 8000bae:	d10c      	bne.n	8000bca <HAL_TIM_PeriodElapsedCallback+0x72>
 8000bb0:	4c12      	ldr	r4, [pc, #72]	@ (8000bfc <HAL_TIM_PeriodElapsedCallback+0xa4>)
 8000bb2:	6823      	ldr	r3, [r4, #0]
 8000bb4:	3301      	adds	r3, #1
 8000bb6:	f5b3 7f96 	cmp.w	r3, #300	@ 0x12c
 8000bba:	6023      	str	r3, [r4, #0]
 8000bbc:	d105      	bne.n	8000bca <HAL_TIM_PeriodElapsedCallback+0x72>
 8000bbe:	2110      	movs	r1, #16
 8000bc0:	480f      	ldr	r0, [pc, #60]	@ (8000c00 <HAL_TIM_PeriodElapsedCallback+0xa8>)
 8000bc2:	f001 fd4a 	bl	800265a <HAL_GPIO_TogglePin>
 8000bc6:	2300      	movs	r3, #0
 8000bc8:	6023      	str	r3, [r4, #0]
 8000bca:	4b0e      	ldr	r3, [pc, #56]	@ (8000c04 <HAL_TIM_PeriodElapsedCallback+0xac>)
 8000bcc:	681a      	ldr	r2, [r3, #0]
 8000bce:	3201      	adds	r2, #1
 8000bd0:	601a      	str	r2, [r3, #0]
 8000bd2:	685a      	ldr	r2, [r3, #4]
 8000bd4:	3201      	adds	r2, #1
 8000bd6:	605a      	str	r2, [r3, #4]
 8000bd8:	bd10      	pop	{r4, pc}
 8000bda:	bf00      	nop
 8000bdc:	240002f4 	.word	0x240002f4
 8000be0:	58020800 	.word	0x58020800
 8000be4:	24000340 	.word	0x24000340
 8000be8:	24000040 	.word	0x24000040
 8000bec:	24000046 	.word	0x24000046
 8000bf0:	2400003c 	.word	0x2400003c
 8000bf4:	58020000 	.word	0x58020000
 8000bf8:	24000045 	.word	0x24000045
 8000bfc:	24000038 	.word	0x24000038
 8000c00:	58020400 	.word	0x58020400
 8000c04:	2400004c 	.word	0x2400004c

08000c08 <key_scan>:
 8000c08:	b510      	push	{r4, lr}
 8000c0a:	2180      	movs	r1, #128	@ 0x80
 8000c0c:	4829      	ldr	r0, [pc, #164]	@ (8000cb4 <key_scan+0xac>)
 8000c0e:	f001 fd19 	bl	8002644 <HAL_GPIO_ReadPin>
 8000c12:	b9e8      	cbnz	r0, 8000c50 <key_scan+0x48>
 8000c14:	200a      	movs	r0, #10
 8000c16:	f000 fdd9 	bl	80017cc <HAL_Delay>
 8000c1a:	2180      	movs	r1, #128	@ 0x80
 8000c1c:	4825      	ldr	r0, [pc, #148]	@ (8000cb4 <key_scan+0xac>)
 8000c1e:	f001 fd11 	bl	8002644 <HAL_GPIO_ReadPin>
 8000c22:	b928      	cbnz	r0, 8000c30 <key_scan+0x28>
 8000c24:	4a24      	ldr	r2, [pc, #144]	@ (8000cb8 <key_scan+0xb0>)
 8000c26:	7a13      	ldrb	r3, [r2, #8]
 8000c28:	b91b      	cbnz	r3, 8000c32 <key_scan+0x2a>
 8000c2a:	2101      	movs	r1, #1
 8000c2c:	6013      	str	r3, [r2, #0]
 8000c2e:	7211      	strb	r1, [r2, #8]
 8000c30:	bd10      	pop	{r4, pc}
 8000c32:	2b01      	cmp	r3, #1
 8000c34:	d1fc      	bne.n	8000c30 <key_scan+0x28>
 8000c36:	4921      	ldr	r1, [pc, #132]	@ (8000cbc <key_scan+0xb4>)
 8000c38:	7808      	ldrb	r0, [r1, #0]
 8000c3a:	2800      	cmp	r0, #0
 8000c3c:	d1f8      	bne.n	8000c30 <key_scan+0x28>
 8000c3e:	6810      	ldr	r0, [r2, #0]
 8000c40:	f640 32b8 	movw	r2, #3000	@ 0xbb8
 8000c44:	4290      	cmp	r0, r2
 8000c46:	d9f3      	bls.n	8000c30 <key_scan+0x28>
 8000c48:	4a1d      	ldr	r2, [pc, #116]	@ (8000cc0 <key_scan+0xb8>)
 8000c4a:	700b      	strb	r3, [r1, #0]
 8000c4c:	7013      	strb	r3, [r2, #0]
 8000c4e:	e7ef      	b.n	8000c30 <key_scan+0x28>
 8000c50:	2180      	movs	r1, #128	@ 0x80
 8000c52:	4818      	ldr	r0, [pc, #96]	@ (8000cb4 <key_scan+0xac>)
 8000c54:	f001 fcf6 	bl	8002644 <HAL_GPIO_ReadPin>
 8000c58:	2801      	cmp	r0, #1
 8000c5a:	d1e9      	bne.n	8000c30 <key_scan+0x28>
 8000c5c:	4b16      	ldr	r3, [pc, #88]	@ (8000cb8 <key_scan+0xb0>)
 8000c5e:	7a18      	ldrb	r0, [r3, #8]
 8000c60:	2801      	cmp	r0, #1
 8000c62:	d11b      	bne.n	8000c9c <key_scan+0x94>
 8000c64:	681c      	ldr	r4, [r3, #0]
 8000c66:	f640 31b8 	movw	r1, #3000	@ 0xbb8
 8000c6a:	2200      	movs	r2, #0
 8000c6c:	428c      	cmp	r4, r1
 8000c6e:	721a      	strb	r2, [r3, #8]
 8000c70:	d905      	bls.n	8000c7e <key_scan+0x76>
 8000c72:	4912      	ldr	r1, [pc, #72]	@ (8000cbc <key_scan+0xb4>)
 8000c74:	725a      	strb	r2, [r3, #9]
 8000c76:	700a      	strb	r2, [r1, #0]
 8000c78:	e9c3 2200 	strd	r2, r2, [r3]
 8000c7c:	e7d8      	b.n	8000c30 <key_scan+0x28>
 8000c7e:	7a59      	ldrb	r1, [r3, #9]
 8000c80:	b911      	cbnz	r1, 8000c88 <key_scan+0x80>
 8000c82:	7258      	strb	r0, [r3, #9]
 8000c84:	6059      	str	r1, [r3, #4]
 8000c86:	e7d3      	b.n	8000c30 <key_scan+0x28>
 8000c88:	2901      	cmp	r1, #1
 8000c8a:	d1d1      	bne.n	8000c30 <key_scan+0x28>
 8000c8c:	6858      	ldr	r0, [r3, #4]
 8000c8e:	f5b0 7ffa 	cmp.w	r0, #500	@ 0x1f4
 8000c92:	d2cd      	bcs.n	8000c30 <key_scan+0x28>
 8000c94:	725a      	strb	r2, [r3, #9]
 8000c96:	4b0b      	ldr	r3, [pc, #44]	@ (8000cc4 <key_scan+0xbc>)
 8000c98:	7019      	strb	r1, [r3, #0]
 8000c9a:	e7c9      	b.n	8000c30 <key_scan+0x28>
 8000c9c:	7a5a      	ldrb	r2, [r3, #9]
 8000c9e:	2a01      	cmp	r2, #1
 8000ca0:	d1c6      	bne.n	8000c30 <key_scan+0x28>
 8000ca2:	6859      	ldr	r1, [r3, #4]
 8000ca4:	f5b1 7ffa 	cmp.w	r1, #500	@ 0x1f4
 8000ca8:	bf21      	itttt	cs
 8000caa:	2100      	movcs	r1, #0
 8000cac:	7259      	strbcs	r1, [r3, #9]
 8000cae:	4b06      	ldrcs	r3, [pc, #24]	@ (8000cc8 <key_scan+0xc0>)
 8000cb0:	701a      	strbcs	r2, [r3, #0]
 8000cb2:	e7bd      	b.n	8000c30 <key_scan+0x28>
 8000cb4:	58020c00 	.word	0x58020c00
 8000cb8:	2400004c 	.word	0x2400004c
 8000cbc:	24000034 	.word	0x24000034
 8000cc0:	24000048 	.word	0x24000048
 8000cc4:	24000049 	.word	0x24000049
 8000cc8:	2400004a 	.word	0x2400004a

08000ccc <main>:
 8000ccc:	e92d 41f0 	stmdb	sp!, {r4, r5, r6, r7, r8, lr}
 8000cd0:	b094      	sub	sp, #80	@ 0x50
 8000cd2:	2400      	movs	r4, #0
 8000cd4:	f000 fd3a 	bl	800174c <HAL_Init>
 8000cd8:	2501      	movs	r5, #1
 8000cda:	f7ff fcc1 	bl	8000660 <SystemClock_Config>
 8000cde:	2214      	movs	r2, #20
 8000ce0:	2100      	movs	r1, #0
 8000ce2:	a809      	add	r0, sp, #36	@ 0x24
 8000ce4:	f004 f957 	bl	8004f96 <memset>
 8000ce8:	4bba      	ldr	r3, [pc, #744]	@ (8000fd4 <main+0x308>)
 8000cea:	f44f 5100 	mov.w	r1, #8192	@ 0x2000
 8000cee:	48ba      	ldr	r0, [pc, #744]	@ (8000fd8 <main+0x30c>)
 8000cf0:	f8d3 20e0 	ldr.w	r2, [r3, #224]	@ 0xe0
 8000cf4:	f44f 5800 	mov.w	r8, #8192	@ 0x2000
 8000cf8:	2604      	movs	r6, #4
 8000cfa:	2703      	movs	r7, #3
 8000cfc:	f042 0204 	orr.w	r2, r2, #4
 8000d00:	f8c3 20e0 	str.w	r2, [r3, #224]	@ 0xe0
 8000d04:	f8d3 20e0 	ldr.w	r2, [r3, #224]	@ 0xe0
 8000d08:	f002 0204 	and.w	r2, r2, #4
 8000d0c:	9200      	str	r2, [sp, #0]
 8000d0e:	9a00      	ldr	r2, [sp, #0]
 8000d10:	f8d3 20e0 	ldr.w	r2, [r3, #224]	@ 0xe0
 8000d14:	f042 0210 	orr.w	r2, r2, #16
 8000d18:	f8c3 20e0 	str.w	r2, [r3, #224]	@ 0xe0
 8000d1c:	f8d3 20e0 	ldr.w	r2, [r3, #224]	@ 0xe0
 8000d20:	f002 0210 	and.w	r2, r2, #16
 8000d24:	9201      	str	r2, [sp, #4]
 8000d26:	9a01      	ldr	r2, [sp, #4]
 8000d28:	f8d3 20e0 	ldr.w	r2, [r3, #224]	@ 0xe0
 8000d2c:	f042 0202 	orr.w	r2, r2, #2
 8000d30:	f8c3 20e0 	str.w	r2, [r3, #224]	@ 0xe0
 8000d34:	f8d3 20e0 	ldr.w	r2, [r3, #224]	@ 0xe0
 8000d38:	f002 0202 	and.w	r2, r2, #2
 8000d3c:	9202      	str	r2, [sp, #8]
 8000d3e:	9a02      	ldr	r2, [sp, #8]
 8000d40:	f8d3 20e0 	ldr.w	r2, [r3, #224]	@ 0xe0
 8000d44:	f042 0201 	orr.w	r2, r2, #1
 8000d48:	f8c3 20e0 	str.w	r2, [r3, #224]	@ 0xe0
 8000d4c:	f8d3 20e0 	ldr.w	r2, [r3, #224]	@ 0xe0
 8000d50:	f002 0201 	and.w	r2, r2, #1
 8000d54:	9203      	str	r2, [sp, #12]
 8000d56:	9a03      	ldr	r2, [sp, #12]
 8000d58:	f8d3 20e0 	ldr.w	r2, [r3, #224]	@ 0xe0
 8000d5c:	f042 0208 	orr.w	r2, r2, #8
 8000d60:	f8c3 20e0 	str.w	r2, [r3, #224]	@ 0xe0
 8000d64:	f8d3 20e0 	ldr.w	r2, [r3, #224]	@ 0xe0
 8000d68:	f002 0208 	and.w	r2, r2, #8
 8000d6c:	9204      	str	r2, [sp, #16]
 8000d6e:	9a04      	ldr	r2, [sp, #16]
 8000d70:	f8d3 20e0 	ldr.w	r2, [r3, #224]	@ 0xe0
 8000d74:	f042 0280 	orr.w	r2, r2, #128	@ 0x80
 8000d78:	f8c3 20e0 	str.w	r2, [r3, #224]	@ 0xe0
 8000d7c:	2200      	movs	r2, #0
 8000d7e:	f8d3 30e0 	ldr.w	r3, [r3, #224]	@ 0xe0
 8000d82:	f003 0380 	and.w	r3, r3, #128	@ 0x80
 8000d86:	9305      	str	r3, [sp, #20]
 8000d88:	9b05      	ldr	r3, [sp, #20]
 8000d8a:	f001 fc61 	bl	8002650 <HAL_GPIO_WritePin>
 8000d8e:	2200      	movs	r2, #0
 8000d90:	2104      	movs	r1, #4
 8000d92:	4892      	ldr	r0, [pc, #584]	@ (8000fdc <main+0x310>)
 8000d94:	f001 fc5c 	bl	8002650 <HAL_GPIO_WritePin>
 8000d98:	2201      	movs	r2, #1
 8000d9a:	2118      	movs	r1, #24
 8000d9c:	4890      	ldr	r0, [pc, #576]	@ (8000fe0 <main+0x314>)
 8000d9e:	f001 fc57 	bl	8002650 <HAL_GPIO_WritePin>
 8000da2:	2201      	movs	r2, #1
 8000da4:	f44f 4108 	mov.w	r1, #34816	@ 0x8800
 8000da8:	488e      	ldr	r0, [pc, #568]	@ (8000fe4 <main+0x318>)
 8000daa:	f001 fc51 	bl	8002650 <HAL_GPIO_WritePin>
 8000dae:	2200      	movs	r2, #0
 8000db0:	f44f 6140 	mov.w	r1, #3072	@ 0xc00
 8000db4:	488a      	ldr	r0, [pc, #552]	@ (8000fe0 <main+0x314>)
 8000db6:	f001 fc4b 	bl	8002650 <HAL_GPIO_WritePin>
 8000dba:	2200      	movs	r2, #0
 8000dbc:	f44f 5100 	mov.w	r1, #8192	@ 0x2000
 8000dc0:	4889      	ldr	r0, [pc, #548]	@ (8000fe8 <main+0x31c>)
 8000dc2:	f001 fc45 	bl	8002650 <HAL_GPIO_WritePin>
 8000dc6:	a909      	add	r1, sp, #36	@ 0x24
 8000dc8:	4883      	ldr	r0, [pc, #524]	@ (8000fd8 <main+0x30c>)
 8000dca:	e9cd 440b 	strd	r4, r4, [sp, #44]	@ 0x2c
 8000dce:	e9cd 8509 	strd	r8, r5, [sp, #36]	@ 0x24
 8000dd2:	f001 fb55 	bl	8002480 <HAL_GPIO_Init>
 8000dd6:	a909      	add	r1, sp, #36	@ 0x24
 8000dd8:	4880      	ldr	r0, [pc, #512]	@ (8000fdc <main+0x310>)
 8000dda:	e9cd 440b 	strd	r4, r4, [sp, #44]	@ 0x2c
 8000dde:	e9cd 6509 	strd	r6, r5, [sp, #36]	@ 0x24
 8000de2:	f001 fb4d 	bl	8002480 <HAL_GPIO_Init>
 8000de6:	f640 4318 	movw	r3, #3096	@ 0xc18
 8000dea:	a909      	add	r1, sp, #36	@ 0x24
 8000dec:	487c      	ldr	r0, [pc, #496]	@ (8000fe0 <main+0x314>)
 8000dee:	e9cd 3509 	strd	r3, r5, [sp, #36]	@ 0x24
 8000df2:	e9cd 440b 	strd	r4, r4, [sp, #44]	@ 0x2c
 8000df6:	f001 fb43 	bl	8002480 <HAL_GPIO_Init>
 8000dfa:	f44f 4308 	mov.w	r3, #34816	@ 0x8800
 8000dfe:	a909      	add	r1, sp, #36	@ 0x24
 8000e00:	4878      	ldr	r0, [pc, #480]	@ (8000fe4 <main+0x318>)
 8000e02:	e9cd 3509 	strd	r3, r5, [sp, #36]	@ 0x24
 8000e06:	e9cd 440b 	strd	r4, r4, [sp, #44]	@ 0x2c
 8000e0a:	f001 fb39 	bl	8002480 <HAL_GPIO_Init>
 8000e0e:	f241 2391 	movw	r3, #4753	@ 0x1291
 8000e12:	a909      	add	r1, sp, #36	@ 0x24
 8000e14:	4874      	ldr	r0, [pc, #464]	@ (8000fe8 <main+0x31c>)
 8000e16:	940b      	str	r4, [sp, #44]	@ 0x2c
 8000e18:	e9cd 3409 	strd	r3, r4, [sp, #36]	@ 0x24
 8000e1c:	f001 fb30 	bl	8002480 <HAL_GPIO_Init>
 8000e20:	f44f 7380 	mov.w	r3, #256	@ 0x100
 8000e24:	a909      	add	r1, sp, #36	@ 0x24
 8000e26:	486f      	ldr	r0, [pc, #444]	@ (8000fe4 <main+0x318>)
 8000e28:	940b      	str	r4, [sp, #44]	@ 0x2c
 8000e2a:	e9cd 3409 	strd	r3, r4, [sp, #36]	@ 0x24
 8000e2e:	f001 fb27 	bl	8002480 <HAL_GPIO_Init>
 8000e32:	a909      	add	r1, sp, #36	@ 0x24
 8000e34:	4868      	ldr	r0, [pc, #416]	@ (8000fd8 <main+0x30c>)
 8000e36:	9509      	str	r5, [sp, #36]	@ 0x24
 8000e38:	e9cd 740a 	strd	r7, r4, [sp, #40]	@ 0x28
 8000e3c:	f001 fb20 	bl	8002480 <HAL_GPIO_Init>
 8000e40:	a909      	add	r1, sp, #36	@ 0x24
 8000e42:	4867      	ldr	r0, [pc, #412]	@ (8000fe0 <main+0x314>)
 8000e44:	940b      	str	r4, [sp, #44]	@ 0x2c
 8000e46:	e9cd 8409 	strd	r8, r4, [sp, #36]	@ 0x24
 8000e4a:	f001 fb19 	bl	8002480 <HAL_GPIO_Init>
 8000e4e:	a909      	add	r1, sp, #36	@ 0x24
 8000e50:	4865      	ldr	r0, [pc, #404]	@ (8000fe8 <main+0x31c>)
 8000e52:	e9cd 440b 	strd	r4, r4, [sp, #44]	@ 0x2c
 8000e56:	e9cd 8509 	strd	r8, r5, [sp, #36]	@ 0x24
 8000e5a:	f001 fb11 	bl	8002480 <HAL_GPIO_Init>
 8000e5e:	4863      	ldr	r0, [pc, #396]	@ (8000fec <main+0x320>)
 8000e60:	4b63      	ldr	r3, [pc, #396]	@ (8000ff0 <main+0x324>)
 8000e62:	8204      	strh	r4, [r0, #16]
 8000e64:	6003      	str	r3, [r0, #0]
 8000e66:	2305      	movs	r3, #5
 8000e68:	7484      	strb	r4, [r0, #18]
 8000e6a:	6344      	str	r4, [r0, #52]	@ 0x34
 8000e6c:	6686      	str	r6, [r0, #104]	@ 0x68
 8000e6e:	e9c0 3505 	strd	r3, r5, [r0, #20]
 8000e72:	e9c0 3607 	strd	r3, r6, [r0, #28]
 8000e76:	e9c0 3509 	strd	r3, r5, [r0, #36]	@ 0x24
 8000e7a:	e9c0 360b 	strd	r3, r6, [r0, #44]	@ 0x2c
 8000e7e:	230a      	movs	r3, #10
 8000e80:	e9c0 4402 	strd	r4, r4, [r0, #8]
 8000e84:	e9c0 4612 	strd	r4, r6, [r0, #72]	@ 0x48
 8000e88:	e9c0 4614 	strd	r4, r6, [r0, #80]	@ 0x50
 8000e8c:	e9c0 4416 	strd	r4, r4, [r0, #88]	@ 0x58
 8000e90:	e9c0 5418 	strd	r5, r4, [r0, #96]	@ 0x60
 8000e94:	e9c0 330e 	strd	r3, r3, [r0, #56]	@ 0x38
 8000e98:	e9c0 5610 	strd	r5, r6, [r0, #64]	@ 0x40
 8000e9c:	f000 fde2 	bl	8001a64 <HAL_FDCAN_Init>
 8000ea0:	4604      	mov	r4, r0
 8000ea2:	b108      	cbz	r0, 8000ea8 <main+0x1dc>
 8000ea4:	b672      	cpsid	i
 8000ea6:	e7fe      	b.n	8000ea6 <main+0x1da>
 8000ea8:	f7ff fbac 	bl	8000604 <MX_FDCAN2_Init>
 8000eac:	4851      	ldr	r0, [pc, #324]	@ (8000ff4 <main+0x328>)
 8000eae:	4b52      	ldr	r3, [pc, #328]	@ (8000ff8 <main+0x32c>)
 8000eb0:	6184      	str	r4, [r0, #24]
 8000eb2:	e9c0 3400 	strd	r3, r4, [r0]
 8000eb6:	e9c0 4702 	strd	r4, r7, [r0, #8]
 8000eba:	e9c0 4404 	strd	r4, r4, [r0, #16]
 8000ebe:	e9c0 4408 	strd	r4, r4, [r0, #32]
 8000ec2:	e9c0 440a 	strd	r4, r4, [r0, #40]	@ 0x28
 8000ec6:	e9c0 440d 	strd	r4, r4, [r0, #52]	@ 0x34
 8000eca:	e9c0 440f 	strd	r4, r4, [r0, #60]	@ 0x3c
 8000ece:	e9c0 4411 	strd	r4, r4, [r0, #68]	@ 0x44
 8000ed2:	e9c0 4413 	strd	r4, r4, [r0, #76]	@ 0x4c
 8000ed6:	e9c0 4415 	strd	r4, r4, [r0, #84]	@ 0x54
 8000eda:	f002 ff57 	bl	8003d8c <HAL_SPI_Init>
 8000ede:	b108      	cbz	r0, 8000ee4 <main+0x218>
 8000ee0:	b672      	cpsid	i
 8000ee2:	e7fe      	b.n	8000ee2 <main+0x216>
 8000ee4:	4c45      	ldr	r4, [pc, #276]	@ (8000ffc <main+0x330>)
 8000ee6:	250c      	movs	r5, #12
 8000ee8:	4b45      	ldr	r3, [pc, #276]	@ (8001000 <main+0x334>)
 8000eea:	f44f 36e1 	mov.w	r6, #115200	@ 0x1c200
 8000eee:	6120      	str	r0, [r4, #16]
 8000ef0:	e9c4 0002 	strd	r0, r0, [r4, #8]
 8000ef4:	e9c4 5005 	strd	r5, r0, [r4, #20]
 8000ef8:	e9c4 0007 	strd	r0, r0, [r4, #28]
 8000efc:	e9c4 0009 	strd	r0, r0, [r4, #36]	@ 0x24
 8000f00:	4620      	mov	r0, r4
 8000f02:	e9c4 3600 	strd	r3, r6, [r4]
 8000f06:	f003 ff44 	bl	8004d92 <HAL_UART_Init>
 8000f0a:	4601      	mov	r1, r0
 8000f0c:	b108      	cbz	r0, 8000f12 <main+0x246>
 8000f0e:	b672      	cpsid	i
 8000f10:	e7fe      	b.n	8000f10 <main+0x244>
 8000f12:	4620      	mov	r0, r4
 8000f14:	f003 ffff 	bl	8004f16 <HAL_UARTEx_SetTxFifoThreshold>
 8000f18:	4601      	mov	r1, r0
 8000f1a:	b108      	cbz	r0, 8000f20 <main+0x254>
 8000f1c:	b672      	cpsid	i
 8000f1e:	e7fe      	b.n	8000f1e <main+0x252>
 8000f20:	4620      	mov	r0, r4
 8000f22:	f004 f818 	bl	8004f56 <HAL_UARTEx_SetRxFifoThreshold>
 8000f26:	b108      	cbz	r0, 8000f2c <main+0x260>
 8000f28:	b672      	cpsid	i
 8000f2a:	e7fe      	b.n	8000f2a <main+0x25e>
 8000f2c:	4620      	mov	r0, r4
 8000f2e:	f003 ffd7 	bl	8004ee0 <HAL_UARTEx_DisableFifoMode>
 8000f32:	b108      	cbz	r0, 8000f38 <main+0x26c>
 8000f34:	b672      	cpsid	i
 8000f36:	e7fe      	b.n	8000f36 <main+0x26a>
 8000f38:	4c32      	ldr	r4, [pc, #200]	@ (8001004 <main+0x338>)
 8000f3a:	4b33      	ldr	r3, [pc, #204]	@ (8001008 <main+0x33c>)
 8000f3c:	62a0      	str	r0, [r4, #40]	@ 0x28
 8000f3e:	e9c4 0002 	strd	r0, r0, [r4, #8]
 8000f42:	e9c4 0504 	strd	r0, r5, [r4, #16]
 8000f46:	e9c4 0006 	strd	r0, r0, [r4, #24]
 8000f4a:	e9c4 0008 	strd	r0, r0, [r4, #32]
 8000f4e:	4620      	mov	r0, r4
 8000f50:	e9c4 3600 	strd	r3, r6, [r4]
 8000f54:	f003 ff1d 	bl	8004d92 <HAL_UART_Init>
 8000f58:	4601      	mov	r1, r0
 8000f5a:	b108      	cbz	r0, 8000f60 <main+0x294>
 8000f5c:	b672      	cpsid	i
 8000f5e:	e7fe      	b.n	8000f5e <main+0x292>
 8000f60:	4620      	mov	r0, r4
 8000f62:	f003 ffd8 	bl	8004f16 <HAL_UARTEx_SetTxFifoThreshold>
 8000f66:	4601      	mov	r1, r0
 8000f68:	b108      	cbz	r0, 8000f6e <main+0x2a2>
 8000f6a:	b672      	cpsid	i
 8000f6c:	e7fe      	b.n	8000f6c <main+0x2a0>
 8000f6e:	4620      	mov	r0, r4
 8000f70:	f003 fff1 	bl	8004f56 <HAL_UARTEx_SetRxFifoThreshold>
 8000f74:	b108      	cbz	r0, 8000f7a <main+0x2ae>
 8000f76:	b672      	cpsid	i
 8000f78:	e7fe      	b.n	8000f78 <main+0x2ac>
 8000f7a:	4620      	mov	r0, r4
 8000f7c:	f003 ffb0 	bl	8004ee0 <HAL_UARTEx_DisableFifoMode>
 8000f80:	b108      	cbz	r0, 8000f86 <main+0x2ba>
 8000f82:	b672      	cpsid	i
 8000f84:	e7fe      	b.n	8000f84 <main+0x2b8>
 8000f86:	4c21      	ldr	r4, [pc, #132]	@ (800100c <main+0x340>)
 8000f88:	f44f 36e1 	mov.w	r6, #115200	@ 0x1c200
 8000f8c:	4b20      	ldr	r3, [pc, #128]	@ (8001010 <main+0x344>)
 8000f8e:	250c      	movs	r5, #12
 8000f90:	4620      	mov	r0, r4
 8000f92:	e9c4 3600 	strd	r3, r6, [r4]
 8000f96:	2300      	movs	r3, #0
 8000f98:	4619      	mov	r1, r3
 8000f9a:	461a      	mov	r2, r3
 8000f9c:	6123      	str	r3, [r4, #16]
 8000f9e:	e9c4 3302 	strd	r3, r3, [r4, #8]
 8000fa2:	e9c4 5305 	strd	r5, r3, [r4, #20]
 8000fa6:	e9c4 3307 	strd	r3, r3, [r4, #28]
 8000faa:	e9c4 3309 	strd	r3, r3, [r4, #36]	@ 0x24
 8000fae:	f003 ff57 	bl	8004e60 <HAL_RS485Ex_Init>
 8000fb2:	4601      	mov	r1, r0
 8000fb4:	b108      	cbz	r0, 8000fba <main+0x2ee>
 8000fb6:	b672      	cpsid	i
 8000fb8:	e7fe      	b.n	8000fb8 <main+0x2ec>
 8000fba:	4620      	mov	r0, r4
 8000fbc:	f003 ffab 	bl	8004f16 <HAL_UARTEx_SetTxFifoThreshold>
 8000fc0:	4601      	mov	r1, r0
 8000fc2:	b108      	cbz	r0, 8000fc8 <main+0x2fc>
 8000fc4:	b672      	cpsid	i
 8000fc6:	e7fe      	b.n	8000fc6 <main+0x2fa>
 8000fc8:	4620      	mov	r0, r4
 8000fca:	f003 ffc4 	bl	8004f56 <HAL_UARTEx_SetRxFifoThreshold>
 8000fce:	b308      	cbz	r0, 8001014 <main+0x348>
 8000fd0:	b672      	cpsid	i
 8000fd2:	e7fe      	b.n	8000fd2 <main+0x306>
 8000fd4:	58024400 	.word	0x58024400
 8000fd8:	58020800 	.word	0x58020800
 8000fdc:	58021000 	.word	0x58021000
 8000fe0:	58020400 	.word	0x58020400
 8000fe4:	58020000 	.word	0x58020000
 8000fe8:	58020c00 	.word	0x58020c00
 8000fec:	240004b4 	.word	0x240004b4
 8000ff0:	4000a000 	.word	0x4000a000
 8000ff4:	2400038c 	.word	0x2400038c
 8000ff8:	40013400 	.word	0x40013400
 8000ffc:	24000268 	.word	0x24000268
 8001000:	40004c00 	.word	0x40004c00
 8001004:	240001dc 	.word	0x240001dc
 8001008:	40005000 	.word	0x40005000
 800100c:	24000150 	.word	0x24000150
 8001010:	40011000 	.word	0x40011000
 8001014:	4620      	mov	r0, r4
 8001016:	f003 ff63 	bl	8004ee0 <HAL_UARTEx_DisableFifoMode>
 800101a:	b108      	cbz	r0, 8001020 <main+0x354>
 800101c:	b672      	cpsid	i
 800101e:	e7fe      	b.n	800101e <main+0x352>
 8001020:	4c65      	ldr	r4, [pc, #404]	@ (80011b8 <main+0x4ec>)
 8001022:	4b66      	ldr	r3, [pc, #408]	@ (80011bc <main+0x4f0>)
 8001024:	62a0      	str	r0, [r4, #40]	@ 0x28
 8001026:	e9c4 0002 	strd	r0, r0, [r4, #8]
 800102a:	e9c4 0504 	strd	r0, r5, [r4, #16]
 800102e:	e9c4 0006 	strd	r0, r0, [r4, #24]
 8001032:	e9c4 0008 	strd	r0, r0, [r4, #32]
 8001036:	4620      	mov	r0, r4
 8001038:	e9c4 3600 	strd	r3, r6, [r4]
 800103c:	f003 fea9 	bl	8004d92 <HAL_UART_Init>
 8001040:	4601      	mov	r1, r0
 8001042:	b108      	cbz	r0, 8001048 <main+0x37c>
 8001044:	b672      	cpsid	i
 8001046:	e7fe      	b.n	8001046 <main+0x37a>
 8001048:	4620      	mov	r0, r4
 800104a:	f003 ff64 	bl	8004f16 <HAL_UARTEx_SetTxFifoThreshold>
 800104e:	4601      	mov	r1, r0
 8001050:	b108      	cbz	r0, 8001056 <main+0x38a>
 8001052:	b672      	cpsid	i
 8001054:	e7fe      	b.n	8001054 <main+0x388>
 8001056:	4620      	mov	r0, r4
 8001058:	f003 ff7d 	bl	8004f56 <HAL_UARTEx_SetRxFifoThreshold>
 800105c:	b108      	cbz	r0, 8001062 <main+0x396>
 800105e:	b672      	cpsid	i
 8001060:	e7fe      	b.n	8001060 <main+0x394>
 8001062:	4620      	mov	r0, r4
 8001064:	f003 ff3c 	bl	8004ee0 <HAL_UARTEx_DisableFifoMode>
 8001068:	4604      	mov	r4, r0
 800106a:	b108      	cbz	r0, 8001070 <main+0x3a4>
 800106c:	b672      	cpsid	i
 800106e:	e7fe      	b.n	800106e <main+0x3a2>
 8001070:	4601      	mov	r1, r0
 8001072:	2210      	movs	r2, #16
 8001074:	a809      	add	r0, sp, #36	@ 0x24
 8001076:	4d52      	ldr	r5, [pc, #328]	@ (80011c0 <main+0x4f4>)
 8001078:	f003 ff8d 	bl	8004f96 <memset>
 800107c:	f242 730f 	movw	r3, #9999	@ 0x270f
 8001080:	4950      	ldr	r1, [pc, #320]	@ (80011c4 <main+0x4f8>)
 8001082:	4628      	mov	r0, r5
 8001084:	9408      	str	r4, [sp, #32]
 8001086:	60ac      	str	r4, [r5, #8]
 8001088:	61ac      	str	r4, [r5, #24]
 800108a:	e9c5 1300 	strd	r1, r3, [r5]
 800108e:	f241 3387 	movw	r3, #4999	@ 0x1387
 8001092:	e9cd 4406 	strd	r4, r4, [sp, #24]
 8001096:	e9c5 3403 	strd	r3, r4, [r5, #12]
 800109a:	f003 f825 	bl	80040e8 <HAL_TIM_Base_Init>
 800109e:	b108      	cbz	r0, 80010a4 <main+0x3d8>
 80010a0:	b672      	cpsid	i
 80010a2:	e7fe      	b.n	80010a2 <main+0x3d6>
 80010a4:	f44f 5380 	mov.w	r3, #4096	@ 0x1000
 80010a8:	a909      	add	r1, sp, #36	@ 0x24
 80010aa:	4628      	mov	r0, r5
 80010ac:	9309      	str	r3, [sp, #36]	@ 0x24
 80010ae:	f003 f855 	bl	800415c <HAL_TIM_ConfigClockSource>
 80010b2:	b108      	cbz	r0, 80010b8 <main+0x3ec>
 80010b4:	b672      	cpsid	i
 80010b6:	e7fe      	b.n	80010b6 <main+0x3ea>
 80010b8:	2300      	movs	r3, #0
 80010ba:	a906      	add	r1, sp, #24
 80010bc:	4840      	ldr	r0, [pc, #256]	@ (80011c0 <main+0x4f4>)
 80010be:	9306      	str	r3, [sp, #24]
 80010c0:	9308      	str	r3, [sp, #32]
 80010c2:	f003 f8f9 	bl	80042b8 <HAL_TIMEx_MasterConfigSynchronization>
 80010c6:	4605      	mov	r5, r0
 80010c8:	b108      	cbz	r0, 80010ce <main+0x402>
 80010ca:	b672      	cpsid	i
 80010cc:	e7fe      	b.n	80010cc <main+0x400>
 80010ce:	2210      	movs	r2, #16
 80010d0:	4601      	mov	r1, r0
 80010d2:	a809      	add	r0, sp, #36	@ 0x24
 80010d4:	4c3c      	ldr	r4, [pc, #240]	@ (80011c8 <main+0x4fc>)
 80010d6:	f003 ff5e 	bl	8004f96 <memset>
 80010da:	f242 730f 	movw	r3, #9999	@ 0x270f
 80010de:	4a3b      	ldr	r2, [pc, #236]	@ (80011cc <main+0x500>)
 80010e0:	4620      	mov	r0, r4
 80010e2:	9508      	str	r5, [sp, #32]
 80010e4:	60a5      	str	r5, [r4, #8]
 80010e6:	61a5      	str	r5, [r4, #24]
 80010e8:	e9c4 2300 	strd	r2, r3, [r4]
 80010ec:	2309      	movs	r3, #9
 80010ee:	e9cd 5506 	strd	r5, r5, [sp, #24]
 80010f2:	e9c4 3503 	strd	r3, r5, [r4, #12]
 80010f6:	f002 fff7 	bl	80040e8 <HAL_TIM_Base_Init>
 80010fa:	b108      	cbz	r0, 8001100 <main+0x434>
 80010fc:	b672      	cpsid	i
 80010fe:	e7fe      	b.n	80010fe <main+0x432>
 8001100:	f44f 5380 	mov.w	r3, #4096	@ 0x1000
 8001104:	a909      	add	r1, sp, #36	@ 0x24
 8001106:	4620      	mov	r0, r4
 8001108:	9309      	str	r3, [sp, #36]	@ 0x24
 800110a:	f003 f827 	bl	800415c <HAL_TIM_ConfigClockSource>
 800110e:	b108      	cbz	r0, 8001114 <main+0x448>
 8001110:	b672      	cpsid	i
 8001112:	e7fe      	b.n	8001112 <main+0x446>
 8001114:	9006      	str	r0, [sp, #24]
 8001116:	a906      	add	r1, sp, #24
 8001118:	9008      	str	r0, [sp, #32]
 800111a:	4620      	mov	r0, r4
 800111c:	f003 f8cc 	bl	80042b8 <HAL_TIMEx_MasterConfigSynchronization>
 8001120:	4605      	mov	r5, r0
 8001122:	b108      	cbz	r0, 8001128 <main+0x45c>
 8001124:	b672      	cpsid	i
 8001126:	e7fe      	b.n	8001126 <main+0x45a>
 8001128:	f7ff fbac 	bl	8000884 <FDCAN2_Config>
 800112c:	2201      	movs	r2, #1
 800112e:	4928      	ldr	r1, [pc, #160]	@ (80011d0 <main+0x504>)
 8001130:	4821      	ldr	r0, [pc, #132]	@ (80011b8 <main+0x4ec>)
 8001132:	f003 f91b 	bl	800436c <HAL_UART_Receive_IT>
 8001136:	4620      	mov	r0, r4
 8001138:	f002 feb2 	bl	8003ea0 <HAL_TIM_Base_Start_IT>
 800113c:	4820      	ldr	r0, [pc, #128]	@ (80011c0 <main+0x4f4>)
 800113e:	f002 feaf 	bl	8003ea0 <HAL_TIM_Base_Start_IT>
 8001142:	4e24      	ldr	r6, [pc, #144]	@ (80011d4 <main+0x508>)
 8001144:	2201      	movs	r2, #1
 8001146:	f44f 6100 	mov.w	r1, #2048	@ 0x800
 800114a:	4823      	ldr	r0, [pc, #140]	@ (80011d8 <main+0x50c>)
 800114c:	f001 fa80 	bl	8002650 <HAL_GPIO_WritePin>
 8001150:	462a      	mov	r2, r5
 8001152:	f44f 4100 	mov.w	r1, #32768	@ 0x8000
 8001156:	481f      	ldr	r0, [pc, #124]	@ (80011d4 <main+0x508>)
 8001158:	f001 fa7a 	bl	8002650 <HAL_GPIO_WritePin>
 800115c:	4d1e      	ldr	r5, [pc, #120]	@ (80011d8 <main+0x50c>)
 800115e:	240a      	movs	r4, #10
 8001160:	200a      	movs	r0, #10
 8001162:	f000 fb33 	bl	80017cc <HAL_Delay>
 8001166:	f7ff fd4f 	bl	8000c08 <key_scan>
 800116a:	f7ff fb79 	bl	8000860 <advance>
 800116e:	f44f 7180 	mov.w	r1, #256	@ 0x100
 8001172:	4630      	mov	r0, r6
 8001174:	f001 fa66 	bl	8002644 <HAL_GPIO_ReadPin>
 8001178:	4602      	mov	r2, r0
 800117a:	b968      	cbnz	r0, 8001198 <main+0x4cc>
 800117c:	f44f 6100 	mov.w	r1, #2048	@ 0x800
 8001180:	4628      	mov	r0, r5
 8001182:	f001 fa65 	bl	8002650 <HAL_GPIO_WritePin>
 8001186:	200a      	movs	r0, #10
 8001188:	f000 fb20 	bl	80017cc <HAL_Delay>
 800118c:	2201      	movs	r2, #1
 800118e:	f44f 6100 	mov.w	r1, #2048	@ 0x800
 8001192:	4628      	mov	r0, r5
 8001194:	f001 fa5c 	bl	8002650 <HAL_GPIO_WritePin>
 8001198:	3c01      	subs	r4, #1
 800119a:	b2a4      	uxth	r4, r4
 800119c:	2c00      	cmp	r4, #0
 800119e:	d1df      	bne.n	8001160 <main+0x494>
 80011a0:	a909      	add	r1, sp, #36	@ 0x24
 80011a2:	480e      	ldr	r0, [pc, #56]	@ (80011dc <main+0x510>)
 80011a4:	f000 ff9a 	bl	80020dc <HAL_FDCAN_GetProtocolStatus>
 80011a8:	9b0e      	ldr	r3, [sp, #56]	@ 0x38
 80011aa:	2b01      	cmp	r3, #1
 80011ac:	d1d7      	bne.n	800115e <main+0x492>
 80011ae:	f7ff fa29 	bl	8000604 <MX_FDCAN2_Init>
 80011b2:	f7ff fb67 	bl	8000884 <FDCAN2_Config>
 80011b6:	e7d1      	b.n	800115c <main+0x490>
 80011b8:	240000c4 	.word	0x240000c4
 80011bc:	40004400 	.word	0x40004400
 80011c0:	240002f4 	.word	0x240002f4
 80011c4:	40000800 	.word	0x40000800
 80011c8:	24000340 	.word	0x24000340
 80011cc:	40000400 	.word	0x40000400
 80011d0:	240000c1 	.word	0x240000c1
 80011d4:	58020000 	.word	0x58020000
 80011d8:	58020400 	.word	0x58020400
 80011dc:	24000414 	.word	0x24000414

080011e0 <HAL_MspInit>:
 80011e0:	4b07      	ldr	r3, [pc, #28]	@ (8001200 <HAL_MspInit+0x20>)
 80011e2:	b082      	sub	sp, #8
 80011e4:	f8d3 20f4 	ldr.w	r2, [r3, #244]	@ 0xf4
 80011e8:	f042 0202 	orr.w	r2, r2, #2
 80011ec:	f8c3 20f4 	str.w	r2, [r3, #244]	@ 0xf4
 80011f0:	f8d3 30f4 	ldr.w	r3, [r3, #244]	@ 0xf4
 80011f4:	f003 0302 	and.w	r3, r3, #2
 80011f8:	9301      	str	r3, [sp, #4]
 80011fa:	9b01      	ldr	r3, [sp, #4]
 80011fc:	b002      	add	sp, #8
 80011fe:	4770      	bx	lr
 8001200:	58024400 	.word	0x58024400

08001204 <HAL_FDCAN_MspInit>:
 8001204:	2214      	movs	r2, #20
 8001206:	2100      	movs	r1, #0
 8001208:	b510      	push	{r4, lr}
 800120a:	b08a      	sub	sp, #40	@ 0x28
 800120c:	4604      	mov	r4, r0
 800120e:	eb0d 0002 	add.w	r0, sp, r2
 8001212:	f003 fec0 	bl	8004f96 <memset>
 8001216:	6823      	ldr	r3, [r4, #0]
 8001218:	4a35      	ldr	r2, [pc, #212]	@ (80012f0 <HAL_FDCAN_MspInit+0xec>)
 800121a:	4293      	cmp	r3, r2
 800121c:	d134      	bne.n	8001288 <HAL_FDCAN_MspInit+0x84>
 800121e:	4a35      	ldr	r2, [pc, #212]	@ (80012f4 <HAL_FDCAN_MspInit+0xf0>)
 8001220:	6813      	ldr	r3, [r2, #0]
 8001222:	3301      	adds	r3, #1
 8001224:	2b01      	cmp	r3, #1
 8001226:	6013      	str	r3, [r2, #0]
 8001228:	d10c      	bne.n	8001244 <HAL_FDCAN_MspInit+0x40>
 800122a:	4b33      	ldr	r3, [pc, #204]	@ (80012f8 <HAL_FDCAN_MspInit+0xf4>)
 800122c:	f8d3 20ec 	ldr.w	r2, [r3, #236]	@ 0xec
 8001230:	f442 7280 	orr.w	r2, r2, #256	@ 0x100
 8001234:	f8c3 20ec 	str.w	r2, [r3, #236]	@ 0xec
 8001238:	f8d3 30ec 	ldr.w	r3, [r3, #236]	@ 0xec
 800123c:	f403 7380 	and.w	r3, r3, #256	@ 0x100
 8001240:	9301      	str	r3, [sp, #4]
 8001242:	9b01      	ldr	r3, [sp, #4]
 8001244:	4b2c      	ldr	r3, [pc, #176]	@ (80012f8 <HAL_FDCAN_MspInit+0xf4>)
 8001246:	a905      	add	r1, sp, #20
 8001248:	482c      	ldr	r0, [pc, #176]	@ (80012fc <HAL_FDCAN_MspInit+0xf8>)
 800124a:	f8d3 20e0 	ldr.w	r2, [r3, #224]	@ 0xe0
 800124e:	f042 0202 	orr.w	r2, r2, #2
 8001252:	f8c3 20e0 	str.w	r2, [r3, #224]	@ 0xe0
 8001256:	f44f 7240 	mov.w	r2, #768	@ 0x300
 800125a:	f8d3 30e0 	ldr.w	r3, [r3, #224]	@ 0xe0
 800125e:	f003 0302 	and.w	r3, r3, #2
 8001262:	9302      	str	r3, [sp, #8]
 8001264:	9b02      	ldr	r3, [sp, #8]
 8001266:	2302      	movs	r3, #2
 8001268:	e9cd 2305 	strd	r2, r3, [sp, #20]
 800126c:	2309      	movs	r3, #9
 800126e:	9309      	str	r3, [sp, #36]	@ 0x24
 8001270:	f001 f906 	bl	8002480 <HAL_GPIO_Init>
 8001274:	2013      	movs	r0, #19
 8001276:	2200      	movs	r2, #0
 8001278:	2101      	movs	r1, #1
 800127a:	f000 fad1 	bl	8001820 <HAL_NVIC_SetPriority>
 800127e:	2013      	movs	r0, #19
 8001280:	f000 fb00 	bl	8001884 <HAL_NVIC_EnableIRQ>
 8001284:	b00a      	add	sp, #40	@ 0x28
 8001286:	bd10      	pop	{r4, pc}
 8001288:	4a1d      	ldr	r2, [pc, #116]	@ (8001300 <HAL_FDCAN_MspInit+0xfc>)
 800128a:	4293      	cmp	r3, r2
 800128c:	d1fa      	bne.n	8001284 <HAL_FDCAN_MspInit+0x80>
 800128e:	4a19      	ldr	r2, [pc, #100]	@ (80012f4 <HAL_FDCAN_MspInit+0xf0>)
 8001290:	6813      	ldr	r3, [r2, #0]
 8001292:	3301      	adds	r3, #1
 8001294:	2b01      	cmp	r3, #1
 8001296:	6013      	str	r3, [r2, #0]
 8001298:	d10c      	bne.n	80012b4 <HAL_FDCAN_MspInit+0xb0>
 800129a:	4b17      	ldr	r3, [pc, #92]	@ (80012f8 <HAL_FDCAN_MspInit+0xf4>)
 800129c:	f8d3 20ec 	ldr.w	r2, [r3, #236]	@ 0xec
 80012a0:	f442 7280 	orr.w	r2, r2, #256	@ 0x100
 80012a4:	f8c3 20ec 	str.w	r2, [r3, #236]	@ 0xec
 80012a8:	f8d3 30ec 	ldr.w	r3, [r3, #236]	@ 0xec
 80012ac:	f403 7380 	and.w	r3, r3, #256	@ 0x100
 80012b0:	9303      	str	r3, [sp, #12]
 80012b2:	9b03      	ldr	r3, [sp, #12]
 80012b4:	4b10      	ldr	r3, [pc, #64]	@ (80012f8 <HAL_FDCAN_MspInit+0xf4>)
 80012b6:	2402      	movs	r4, #2
 80012b8:	a905      	add	r1, sp, #20
 80012ba:	4810      	ldr	r0, [pc, #64]	@ (80012fc <HAL_FDCAN_MspInit+0xf8>)
 80012bc:	f8d3 20e0 	ldr.w	r2, [r3, #224]	@ 0xe0
 80012c0:	f042 0202 	orr.w	r2, r2, #2
 80012c4:	f8c3 20e0 	str.w	r2, [r3, #224]	@ 0xe0
 80012c8:	f8d3 30e0 	ldr.w	r3, [r3, #224]	@ 0xe0
 80012cc:	f003 0302 	and.w	r3, r3, #2
 80012d0:	9304      	str	r3, [sp, #16]
 80012d2:	9b04      	ldr	r3, [sp, #16]
 80012d4:	2360      	movs	r3, #96	@ 0x60
 80012d6:	e9cd 3405 	strd	r3, r4, [sp, #20]
 80012da:	2309      	movs	r3, #9
 80012dc:	9309      	str	r3, [sp, #36]	@ 0x24
 80012de:	f001 f8cf 	bl	8002480 <HAL_GPIO_Init>
 80012e2:	2014      	movs	r0, #20
 80012e4:	2200      	movs	r2, #0
 80012e6:	4621      	mov	r1, r4
 80012e8:	f000 fa9a 	bl	8001820 <HAL_NVIC_SetPriority>
 80012ec:	2014      	movs	r0, #20
 80012ee:	e7c7      	b.n	8001280 <HAL_FDCAN_MspInit+0x7c>
 80012f0:	4000a000 	.word	0x4000a000
 80012f4:	24000554 	.word	0x24000554
 80012f8:	58024400 	.word	0x58024400
 80012fc:	58020400 	.word	0x58020400
 8001300:	4000a400 	.word	0x4000a400

08001304 <HAL_SPI_MspInit>:
 8001304:	b510      	push	{r4, lr}
 8001306:	b088      	sub	sp, #32
 8001308:	4604      	mov	r4, r0
 800130a:	2214      	movs	r2, #20
 800130c:	2100      	movs	r1, #0
 800130e:	a803      	add	r0, sp, #12
 8001310:	f003 fe41 	bl	8004f96 <memset>
 8001314:	6822      	ldr	r2, [r4, #0]
 8001316:	4b14      	ldr	r3, [pc, #80]	@ (8001368 <HAL_SPI_MspInit+0x64>)
 8001318:	429a      	cmp	r2, r3
 800131a:	d123      	bne.n	8001364 <HAL_SPI_MspInit+0x60>
 800131c:	4b13      	ldr	r3, [pc, #76]	@ (800136c <HAL_SPI_MspInit+0x68>)
 800131e:	a903      	add	r1, sp, #12
 8001320:	4813      	ldr	r0, [pc, #76]	@ (8001370 <HAL_SPI_MspInit+0x6c>)
 8001322:	f8d3 20f0 	ldr.w	r2, [r3, #240]	@ 0xf0
 8001326:	f442 5200 	orr.w	r2, r2, #8192	@ 0x2000
 800132a:	f8c3 20f0 	str.w	r2, [r3, #240]	@ 0xf0
 800132e:	f8d3 20f0 	ldr.w	r2, [r3, #240]	@ 0xf0
 8001332:	f402 5200 	and.w	r2, r2, #8192	@ 0x2000
 8001336:	9201      	str	r2, [sp, #4]
 8001338:	9a01      	ldr	r2, [sp, #4]
 800133a:	f8d3 20e0 	ldr.w	r2, [r3, #224]	@ 0xe0
 800133e:	f042 0210 	orr.w	r2, r2, #16
 8001342:	f8c3 20e0 	str.w	r2, [r3, #224]	@ 0xe0
 8001346:	f44f 42f0 	mov.w	r2, #30720	@ 0x7800
 800134a:	f8d3 30e0 	ldr.w	r3, [r3, #224]	@ 0xe0
 800134e:	f003 0310 	and.w	r3, r3, #16
 8001352:	9302      	str	r3, [sp, #8]
 8001354:	9b02      	ldr	r3, [sp, #8]
 8001356:	2302      	movs	r3, #2
 8001358:	e9cd 2303 	strd	r2, r3, [sp, #12]
 800135c:	2305      	movs	r3, #5
 800135e:	9307      	str	r3, [sp, #28]
 8001360:	f001 f88e 	bl	8002480 <HAL_GPIO_Init>
 8001364:	b008      	add	sp, #32
 8001366:	bd10      	pop	{r4, pc}
 8001368:	40013400 	.word	0x40013400
 800136c:	58024400 	.word	0x58024400
 8001370:	58021000 	.word	0x58021000

08001374 <HAL_TIM_Base_MspInit>:
 8001374:	6803      	ldr	r3, [r0, #0]
 8001376:	b507      	push	{r0, r1, r2, lr}
 8001378:	4a1a      	ldr	r2, [pc, #104]	@ (80013e4 <HAL_TIM_Base_MspInit+0x70>)
 800137a:	4293      	cmp	r3, r2
 800137c:	d117      	bne.n	80013ae <HAL_TIM_Base_MspInit+0x3a>
 800137e:	4b1a      	ldr	r3, [pc, #104]	@ (80013e8 <HAL_TIM_Base_MspInit+0x74>)
 8001380:	201d      	movs	r0, #29
 8001382:	2103      	movs	r1, #3
 8001384:	f8d3 20e8 	ldr.w	r2, [r3, #232]	@ 0xe8
 8001388:	f042 0202 	orr.w	r2, r2, #2
 800138c:	f8c3 20e8 	str.w	r2, [r3, #232]	@ 0xe8
 8001390:	2200      	movs	r2, #0
 8001392:	f8d3 30e8 	ldr.w	r3, [r3, #232]	@ 0xe8
 8001396:	f003 0302 	and.w	r3, r3, #2
 800139a:	9300      	str	r3, [sp, #0]
 800139c:	9b00      	ldr	r3, [sp, #0]
 800139e:	f000 fa3f 	bl	8001820 <HAL_NVIC_SetPriority>
 80013a2:	201d      	movs	r0, #29
 80013a4:	b003      	add	sp, #12
 80013a6:	f85d eb04 	ldr.w	lr, [sp], #4
 80013aa:	f000 ba6b 	b.w	8001884 <HAL_NVIC_EnableIRQ>
 80013ae:	4a0f      	ldr	r2, [pc, #60]	@ (80013ec <HAL_TIM_Base_MspInit+0x78>)
 80013b0:	4293      	cmp	r3, r2
 80013b2:	d113      	bne.n	80013dc <HAL_TIM_Base_MspInit+0x68>
 80013b4:	4b0c      	ldr	r3, [pc, #48]	@ (80013e8 <HAL_TIM_Base_MspInit+0x74>)
 80013b6:	201e      	movs	r0, #30
 80013b8:	2104      	movs	r1, #4
 80013ba:	f8d3 20e8 	ldr.w	r2, [r3, #232]	@ 0xe8
 80013be:	f042 0204 	orr.w	r2, r2, #4
 80013c2:	f8c3 20e8 	str.w	r2, [r3, #232]	@ 0xe8
 80013c6:	2200      	movs	r2, #0
 80013c8:	f8d3 30e8 	ldr.w	r3, [r3, #232]	@ 0xe8
 80013cc:	f003 0304 	and.w	r3, r3, #4
 80013d0:	9301      	str	r3, [sp, #4]
 80013d2:	9b01      	ldr	r3, [sp, #4]
 80013d4:	f000 fa24 	bl	8001820 <HAL_NVIC_SetPriority>
 80013d8:	201e      	movs	r0, #30
 80013da:	e7e3      	b.n	80013a4 <HAL_TIM_Base_MspInit+0x30>
 80013dc:	b003      	add	sp, #12
 80013de:	f85d fb04 	ldr.w	pc, [sp], #4
 80013e2:	bf00      	nop
 80013e4:	40000400 	.word	0x40000400
 80013e8:	58024400 	.word	0x58024400
 80013ec:	40000800 	.word	0x40000800

080013f0 <HAL_UART_MspInit>:
 80013f0:	b530      	push	{r4, r5, lr}
 80013f2:	b08f      	sub	sp, #60	@ 0x3c
 80013f4:	4604      	mov	r4, r0
 80013f6:	2214      	movs	r2, #20
 80013f8:	2100      	movs	r1, #0
 80013fa:	a809      	add	r0, sp, #36	@ 0x24
 80013fc:	f003 fdcb 	bl	8004f96 <memset>
 8001400:	6823      	ldr	r3, [r4, #0]
 8001402:	4a5c      	ldr	r2, [pc, #368]	@ (8001574 <HAL_UART_MspInit+0x184>)
 8001404:	4293      	cmp	r3, r2
 8001406:	d125      	bne.n	8001454 <HAL_UART_MspInit+0x64>
 8001408:	4b5b      	ldr	r3, [pc, #364]	@ (8001578 <HAL_UART_MspInit+0x188>)
 800140a:	f44f 6040 	mov.w	r0, #3072	@ 0xc00
 800140e:	f8d3 20e8 	ldr.w	r2, [r3, #232]	@ 0xe8
 8001412:	f442 2200 	orr.w	r2, r2, #524288	@ 0x80000
 8001416:	f8c3 20e8 	str.w	r2, [r3, #232]	@ 0xe8
 800141a:	f8d3 20e8 	ldr.w	r2, [r3, #232]	@ 0xe8
 800141e:	f402 2200 	and.w	r2, r2, #524288	@ 0x80000
 8001422:	9200      	str	r2, [sp, #0]
 8001424:	9a00      	ldr	r2, [sp, #0]
 8001426:	f8d3 20e0 	ldr.w	r2, [r3, #224]	@ 0xe0
 800142a:	f042 0204 	orr.w	r2, r2, #4
 800142e:	f8c3 20e0 	str.w	r2, [r3, #224]	@ 0xe0
 8001432:	f8d3 30e0 	ldr.w	r3, [r3, #224]	@ 0xe0
 8001436:	f003 0304 	and.w	r3, r3, #4
 800143a:	9301      	str	r3, [sp, #4]
 800143c:	9b01      	ldr	r3, [sp, #4]
 800143e:	2302      	movs	r3, #2
 8001440:	e9cd 0309 	strd	r0, r3, [sp, #36]	@ 0x24
 8001444:	2308      	movs	r3, #8
 8001446:	930d      	str	r3, [sp, #52]	@ 0x34
 8001448:	a909      	add	r1, sp, #36	@ 0x24
 800144a:	484c      	ldr	r0, [pc, #304]	@ (800157c <HAL_UART_MspInit+0x18c>)
 800144c:	f001 f818 	bl	8002480 <HAL_GPIO_Init>
 8001450:	b00f      	add	sp, #60	@ 0x3c
 8001452:	bd30      	pop	{r4, r5, pc}
 8001454:	4a4a      	ldr	r2, [pc, #296]	@ (8001580 <HAL_UART_MspInit+0x190>)
 8001456:	4293      	cmp	r3, r2
 8001458:	d137      	bne.n	80014ca <HAL_UART_MspInit+0xda>
 800145a:	4b47      	ldr	r3, [pc, #284]	@ (8001578 <HAL_UART_MspInit+0x188>)
 800145c:	2502      	movs	r5, #2
 800145e:	2408      	movs	r4, #8
 8001460:	a909      	add	r1, sp, #36	@ 0x24
 8001462:	f8d3 20e8 	ldr.w	r2, [r3, #232]	@ 0xe8
 8001466:	4847      	ldr	r0, [pc, #284]	@ (8001584 <HAL_UART_MspInit+0x194>)
 8001468:	f442 1280 	orr.w	r2, r2, #1048576	@ 0x100000
 800146c:	f8c3 20e8 	str.w	r2, [r3, #232]	@ 0xe8
 8001470:	f8d3 20e8 	ldr.w	r2, [r3, #232]	@ 0xe8
 8001474:	f402 1280 	and.w	r2, r2, #1048576	@ 0x100000
 8001478:	9202      	str	r2, [sp, #8]
 800147a:	9a02      	ldr	r2, [sp, #8]
 800147c:	f8d3 20e0 	ldr.w	r2, [r3, #224]	@ 0xe0
 8001480:	f042 0208 	orr.w	r2, r2, #8
 8001484:	f8c3 20e0 	str.w	r2, [r3, #224]	@ 0xe0
 8001488:	f8d3 20e0 	ldr.w	r2, [r3, #224]	@ 0xe0
 800148c:	f002 0208 	and.w	r2, r2, #8
 8001490:	9203      	str	r2, [sp, #12]
 8001492:	9a03      	ldr	r2, [sp, #12]
 8001494:	f8d3 20e0 	ldr.w	r2, [r3, #224]	@ 0xe0
 8001498:	f042 0204 	orr.w	r2, r2, #4
 800149c:	f8c3 20e0 	str.w	r2, [r3, #224]	@ 0xe0
 80014a0:	f8d3 30e0 	ldr.w	r3, [r3, #224]	@ 0xe0
 80014a4:	940d      	str	r4, [sp, #52]	@ 0x34
 80014a6:	f003 0304 	and.w	r3, r3, #4
 80014aa:	9304      	str	r3, [sp, #16]
 80014ac:	9b04      	ldr	r3, [sp, #16]
 80014ae:	2304      	movs	r3, #4
 80014b0:	e9cd 3509 	strd	r3, r5, [sp, #36]	@ 0x24
 80014b4:	f000 ffe4 	bl	8002480 <HAL_GPIO_Init>
 80014b8:	f44f 5380 	mov.w	r3, #4096	@ 0x1000
 80014bc:	940d      	str	r4, [sp, #52]	@ 0x34
 80014be:	e9cd 3509 	strd	r3, r5, [sp, #36]	@ 0x24
 80014c2:	2300      	movs	r3, #0
 80014c4:	e9cd 330b 	strd	r3, r3, [sp, #44]	@ 0x2c
 80014c8:	e7be      	b.n	8001448 <HAL_UART_MspInit+0x58>
 80014ca:	4a2f      	ldr	r2, [pc, #188]	@ (8001588 <HAL_UART_MspInit+0x198>)
 80014cc:	4293      	cmp	r3, r2
 80014ce:	d122      	bne.n	8001516 <HAL_UART_MspInit+0x126>
 80014d0:	4b29      	ldr	r3, [pc, #164]	@ (8001578 <HAL_UART_MspInit+0x188>)
 80014d2:	f44f 51b0 	mov.w	r1, #5632	@ 0x1600
 80014d6:	482d      	ldr	r0, [pc, #180]	@ (800158c <HAL_UART_MspInit+0x19c>)
 80014d8:	f8d3 20f0 	ldr.w	r2, [r3, #240]	@ 0xf0
 80014dc:	f042 0210 	orr.w	r2, r2, #16
 80014e0:	f8c3 20f0 	str.w	r2, [r3, #240]	@ 0xf0
 80014e4:	f8d3 20f0 	ldr.w	r2, [r3, #240]	@ 0xf0
 80014e8:	f002 0210 	and.w	r2, r2, #16
 80014ec:	9205      	str	r2, [sp, #20]
 80014ee:	9a05      	ldr	r2, [sp, #20]
 80014f0:	f8d3 20e0 	ldr.w	r2, [r3, #224]	@ 0xe0
 80014f4:	f042 0201 	orr.w	r2, r2, #1
 80014f8:	f8c3 20e0 	str.w	r2, [r3, #224]	@ 0xe0
 80014fc:	f8d3 30e0 	ldr.w	r3, [r3, #224]	@ 0xe0
 8001500:	f003 0301 	and.w	r3, r3, #1
 8001504:	9306      	str	r3, [sp, #24]
 8001506:	9b06      	ldr	r3, [sp, #24]
 8001508:	2302      	movs	r3, #2
 800150a:	e9cd 1309 	strd	r1, r3, [sp, #36]	@ 0x24
 800150e:	2307      	movs	r3, #7
 8001510:	a909      	add	r1, sp, #36	@ 0x24
 8001512:	930d      	str	r3, [sp, #52]	@ 0x34
 8001514:	e79a      	b.n	800144c <HAL_UART_MspInit+0x5c>
 8001516:	4a1e      	ldr	r2, [pc, #120]	@ (8001590 <HAL_UART_MspInit+0x1a0>)
 8001518:	4293      	cmp	r3, r2
 800151a:	d199      	bne.n	8001450 <HAL_UART_MspInit+0x60>
 800151c:	4b16      	ldr	r3, [pc, #88]	@ (8001578 <HAL_UART_MspInit+0x188>)
 800151e:	a909      	add	r1, sp, #36	@ 0x24
 8001520:	4818      	ldr	r0, [pc, #96]	@ (8001584 <HAL_UART_MspInit+0x194>)
 8001522:	f8d3 20e8 	ldr.w	r2, [r3, #232]	@ 0xe8
 8001526:	f442 3200 	orr.w	r2, r2, #131072	@ 0x20000
 800152a:	f8c3 20e8 	str.w	r2, [r3, #232]	@ 0xe8
 800152e:	f8d3 20e8 	ldr.w	r2, [r3, #232]	@ 0xe8
 8001532:	f402 3200 	and.w	r2, r2, #131072	@ 0x20000
 8001536:	9207      	str	r2, [sp, #28]
 8001538:	9a07      	ldr	r2, [sp, #28]
 800153a:	f8d3 20e0 	ldr.w	r2, [r3, #224]	@ 0xe0
 800153e:	f042 0208 	orr.w	r2, r2, #8
 8001542:	f8c3 20e0 	str.w	r2, [r3, #224]	@ 0xe0
 8001546:	2260      	movs	r2, #96	@ 0x60
 8001548:	f8d3 30e0 	ldr.w	r3, [r3, #224]	@ 0xe0
 800154c:	f003 0308 	and.w	r3, r3, #8
 8001550:	9308      	str	r3, [sp, #32]
 8001552:	9b08      	ldr	r3, [sp, #32]
 8001554:	2302      	movs	r3, #2
 8001556:	e9cd 2309 	strd	r2, r3, [sp, #36]	@ 0x24
 800155a:	2307      	movs	r3, #7
 800155c:	930d      	str	r3, [sp, #52]	@ 0x34
 800155e:	f000 ff8f 	bl	8002480 <HAL_GPIO_Init>
 8001562:	2200      	movs	r2, #0
 8001564:	2026      	movs	r0, #38	@ 0x26
 8001566:	4611      	mov	r1, r2
 8001568:	f000 f95a 	bl	8001820 <HAL_NVIC_SetPriority>
 800156c:	2026      	movs	r0, #38	@ 0x26
 800156e:	f000 f989 	bl	8001884 <HAL_NVIC_EnableIRQ>
 8001572:	e76d      	b.n	8001450 <HAL_UART_MspInit+0x60>
 8001574:	40004c00 	.word	0x40004c00
 8001578:	58024400 	.word	0x58024400
 800157c:	58020800 	.word	0x58020800
 8001580:	40005000 	.word	0x40005000
 8001584:	58020c00 	.word	0x58020c00
 8001588:	40011000 	.word	0x40011000
 800158c:	58020000 	.word	0x58020000
 8001590:	40004400 	.word	0x40004400

08001594 <NMI_Handler>:
 8001594:	e7fe      	b.n	8001594 <NMI_Handler>

08001596 <HardFault_Handler>:
 8001596:	e7fe      	b.n	8001596 <HardFault_Handler>

08001598 <MemManage_Handler>:
 8001598:	e7fe      	b.n	8001598 <MemManage_Handler>

0800159a <BusFault_Handler>:
 800159a:	e7fe      	b.n	800159a <BusFault_Handler>

0800159c <UsageFault_Handler>:
 800159c:	e7fe      	b.n	800159c <UsageFault_Handler>

0800159e <SVC_Handler>:
 800159e:	4770      	bx	lr

080015a0 <DebugMon_Handler>:
 80015a0:	4770      	bx	lr

080015a2 <PendSV_Handler>:
 80015a2:	4770      	bx	lr

080015a4 <SysTick_Handler>:
 80015a4:	f000 b900 	b.w	80017a8 <HAL_IncTick>

080015a8 <FDCAN1_IT0_IRQHandler>:
 80015a8:	4801      	ldr	r0, [pc, #4]	@ (80015b0 <FDCAN1_IT0_IRQHandler+0x8>)
 80015aa:	f000 be0b 	b.w	80021c4 <HAL_FDCAN_IRQHandler>
 80015ae:	bf00      	nop
 80015b0:	240004b4 	.word	0x240004b4

080015b4 <FDCAN2_IT0_IRQHandler>:
 80015b4:	4801      	ldr	r0, [pc, #4]	@ (80015bc <FDCAN2_IT0_IRQHandler+0x8>)
 80015b6:	f000 be05 	b.w	80021c4 <HAL_FDCAN_IRQHandler>
 80015ba:	bf00      	nop
 80015bc:	24000414 	.word	0x24000414

080015c0 <TIM3_IRQHandler>:
 80015c0:	4801      	ldr	r0, [pc, #4]	@ (80015c8 <TIM3_IRQHandler+0x8>)
 80015c2:	f002 bc91 	b.w	8003ee8 <HAL_TIM_IRQHandler>
 80015c6:	bf00      	nop
 80015c8:	24000340 	.word	0x24000340

080015cc <TIM4_IRQHandler>:
 80015cc:	4801      	ldr	r0, [pc, #4]	@ (80015d4 <TIM4_IRQHandler+0x8>)
 80015ce:	f002 bc8b 	b.w	8003ee8 <HAL_TIM_IRQHandler>
 80015d2:	bf00      	nop
 80015d4:	240002f4 	.word	0x240002f4

080015d8 <USART2_IRQHandler>:
 80015d8:	4801      	ldr	r0, [pc, #4]	@ (80015e0 <USART2_IRQHandler+0x8>)
 80015da:	f003 b83f 	b.w	800465c <HAL_UART_IRQHandler>
 80015de:	bf00      	nop
 80015e0:	240000c4 	.word	0x240000c4

080015e4 <SystemInit>:
 80015e4:	4a27      	ldr	r2, [pc, #156]	@ (8001684 <SystemInit+0xa0>)
 80015e6:	f8d2 3088 	ldr.w	r3, [r2, #136]	@ 0x88
 80015ea:	f443 0370 	orr.w	r3, r3, #15728640	@ 0xf00000
 80015ee:	f8c2 3088 	str.w	r3, [r2, #136]	@ 0x88
 80015f2:	4a25      	ldr	r2, [pc, #148]	@ (8001688 <SystemInit+0xa4>)
 80015f4:	6813      	ldr	r3, [r2, #0]
 80015f6:	f003 030f 	and.w	r3, r3, #15
 80015fa:	2b06      	cmp	r3, #6
 80015fc:	d805      	bhi.n	800160a <SystemInit+0x26>
 80015fe:	6813      	ldr	r3, [r2, #0]
 8001600:	f023 030f 	bic.w	r3, r3, #15
 8001604:	f043 0307 	orr.w	r3, r3, #7
 8001608:	6013      	str	r3, [r2, #0]
 800160a:	4b20      	ldr	r3, [pc, #128]	@ (800168c <SystemInit+0xa8>)
 800160c:	681a      	ldr	r2, [r3, #0]
 800160e:	f042 0201 	orr.w	r2, r2, #1
 8001612:	601a      	str	r2, [r3, #0]
 8001614:	2200      	movs	r2, #0
 8001616:	611a      	str	r2, [r3, #16]
 8001618:	4a1d      	ldr	r2, [pc, #116]	@ (8001690 <SystemInit+0xac>)
 800161a:	6819      	ldr	r1, [r3, #0]
 800161c:	400a      	ands	r2, r1
 800161e:	491a      	ldr	r1, [pc, #104]	@ (8001688 <SystemInit+0xa4>)
 8001620:	601a      	str	r2, [r3, #0]
 8001622:	680a      	ldr	r2, [r1, #0]
 8001624:	0712      	lsls	r2, r2, #28
 8001626:	d505      	bpl.n	8001634 <SystemInit+0x50>
 8001628:	680a      	ldr	r2, [r1, #0]
 800162a:	f022 020f 	bic.w	r2, r2, #15
 800162e:	f042 0207 	orr.w	r2, r2, #7
 8001632:	600a      	str	r2, [r1, #0]
 8001634:	2200      	movs	r2, #0
 8001636:	4917      	ldr	r1, [pc, #92]	@ (8001694 <SystemInit+0xb0>)
 8001638:	619a      	str	r2, [r3, #24]
 800163a:	61da      	str	r2, [r3, #28]
 800163c:	621a      	str	r2, [r3, #32]
 800163e:	6299      	str	r1, [r3, #40]	@ 0x28
 8001640:	4915      	ldr	r1, [pc, #84]	@ (8001698 <SystemInit+0xb4>)
 8001642:	62d9      	str	r1, [r3, #44]	@ 0x2c
 8001644:	4915      	ldr	r1, [pc, #84]	@ (800169c <SystemInit+0xb8>)
 8001646:	6319      	str	r1, [r3, #48]	@ 0x30
 8001648:	635a      	str	r2, [r3, #52]	@ 0x34
 800164a:	6399      	str	r1, [r3, #56]	@ 0x38
 800164c:	63da      	str	r2, [r3, #60]	@ 0x3c
 800164e:	6419      	str	r1, [r3, #64]	@ 0x40
 8001650:	645a      	str	r2, [r3, #68]	@ 0x44
 8001652:	6819      	ldr	r1, [r3, #0]
 8001654:	f421 2180 	bic.w	r1, r1, #262144	@ 0x40000
 8001658:	6019      	str	r1, [r3, #0]
 800165a:	661a      	str	r2, [r3, #96]	@ 0x60
 800165c:	4b10      	ldr	r3, [pc, #64]	@ (80016a0 <SystemInit+0xbc>)
 800165e:	681b      	ldr	r3, [r3, #0]
 8001660:	f36f 030f 	bfc	r3, #0, #16
 8001664:	f1b3 5f00 	cmp.w	r3, #536870912	@ 0x20000000
 8001668:	d203      	bcs.n	8001672 <SystemInit+0x8e>
 800166a:	4b0e      	ldr	r3, [pc, #56]	@ (80016a4 <SystemInit+0xc0>)
 800166c:	2201      	movs	r2, #1
 800166e:	f8c3 2108 	str.w	r2, [r3, #264]	@ 0x108
 8001672:	4b0d      	ldr	r3, [pc, #52]	@ (80016a8 <SystemInit+0xc4>)
 8001674:	f243 02d2 	movw	r2, #12498	@ 0x30d2
 8001678:	601a      	str	r2, [r3, #0]
 800167a:	f04f 6200 	mov.w	r2, #134217728	@ 0x8000000
 800167e:	4b01      	ldr	r3, [pc, #4]	@ (8001684 <SystemInit+0xa0>)
 8001680:	609a      	str	r2, [r3, #8]
 8001682:	4770      	bx	lr
 8001684:	e000ed00 	.word	0xe000ed00
 8001688:	52002000 	.word	0x52002000
 800168c:	58024400 	.word	0x58024400
 8001690:	eaf6ed7f 	.word	0xeaf6ed7f
 8001694:	02020200 	.word	0x02020200
 8001698:	01ff0000 	.word	0x01ff0000
 800169c:	01010280 	.word	0x01010280
 80016a0:	5c001000 	.word	0x5c001000
 80016a4:	51008000 	.word	0x51008000
 80016a8:	52004000 	.word	0x52004000

080016ac <Reset_Handler>:
 80016ac:	f8df d034 	ldr.w	sp, [pc, #52]	@ 80016e4 <LoopFillZerobss+0x10>
 80016b0:	f7ff ff98 	bl	80015e4 <SystemInit>
 80016b4:	2100      	movs	r1, #0
 80016b6:	e003      	b.n	80016c0 <LoopCopyDataInit>

080016b8 <CopyDataInit>:
 80016b8:	4b0b      	ldr	r3, [pc, #44]	@ (80016e8 <LoopFillZerobss+0x14>)
 80016ba:	585b      	ldr	r3, [r3, r1]
 80016bc:	5043      	str	r3, [r0, r1]
 80016be:	3104      	adds	r1, #4

080016c0 <LoopCopyDataInit>:
 80016c0:	480a      	ldr	r0, [pc, #40]	@ (80016ec <LoopFillZerobss+0x18>)
 80016c2:	4b0b      	ldr	r3, [pc, #44]	@ (80016f0 <LoopFillZerobss+0x1c>)
 80016c4:	1842      	adds	r2, r0, r1
 80016c6:	429a      	cmp	r2, r3
 80016c8:	d3f6      	bcc.n	80016b8 <CopyDataInit>
 80016ca:	4a0a      	ldr	r2, [pc, #40]	@ (80016f4 <LoopFillZerobss+0x20>)
 80016cc:	e002      	b.n	80016d4 <LoopFillZerobss>

080016ce <FillZerobss>:
 80016ce:	2300      	movs	r3, #0
 80016d0:	f842 3b04 	str.w	r3, [r2], #4

080016d4 <LoopFillZerobss>:
 80016d4:	4b08      	ldr	r3, [pc, #32]	@ (80016f8 <LoopFillZerobss+0x24>)
 80016d6:	429a      	cmp	r2, r3
 80016d8:	d3f9      	bcc.n	80016ce <FillZerobss>
 80016da:	f003 fc65 	bl	8004fa8 <__libc_init_array>
 80016de:	f7ff faf5 	bl	8000ccc <main>
 80016e2:	4770      	bx	lr
 80016e4:	24080000 	.word	0x24080000
 80016e8:	080050cc 	.word	0x080050cc
 80016ec:	24000000 	.word	0x24000000
 80016f0:	24000018 	.word	0x24000018
 80016f4:	24000018 	.word	0x24000018
 80016f8:	2400055c 	.word	0x2400055c

080016fc <ADC3_IRQHandler>:
 80016fc:	e7fe      	b.n	80016fc <ADC3_IRQHandler>
	...

08001700 <HAL_InitTick>:
 8001700:	b538      	push	{r3, r4, r5, lr}
 8001702:	4b0f      	ldr	r3, [pc, #60]	@ (8001740 <HAL_InitTick+0x40>)
 8001704:	4605      	mov	r5, r0
 8001706:	781a      	ldrb	r2, [r3, #0]
 8001708:	b90a      	cbnz	r2, 800170e <HAL_InitTick+0xe>
 800170a:	2001      	movs	r0, #1
 800170c:	bd38      	pop	{r3, r4, r5, pc}
 800170e:	f44f 737a 	mov.w	r3, #1000	@ 0x3e8
 8001712:	fbb3 f3f2 	udiv	r3, r3, r2
 8001716:	4a0b      	ldr	r2, [pc, #44]	@ (8001744 <HAL_InitTick+0x44>)
 8001718:	6810      	ldr	r0, [r2, #0]
 800171a:	fbb0 f0f3 	udiv	r0, r0, r3
 800171e:	f000 f8bf 	bl	80018a0 <HAL_SYSTICK_Config>
 8001722:	4604      	mov	r4, r0
 8001724:	2800      	cmp	r0, #0
 8001726:	d1f0      	bne.n	800170a <HAL_InitTick+0xa>
 8001728:	2d0f      	cmp	r5, #15
 800172a:	d8ee      	bhi.n	800170a <HAL_InitTick+0xa>
 800172c:	4602      	mov	r2, r0
 800172e:	4629      	mov	r1, r5
 8001730:	f04f 30ff 	mov.w	r0, #4294967295
 8001734:	f000 f874 	bl	8001820 <HAL_NVIC_SetPriority>
 8001738:	4b03      	ldr	r3, [pc, #12]	@ (8001748 <HAL_InitTick+0x48>)
 800173a:	4620      	mov	r0, r4
 800173c:	601d      	str	r5, [r3, #0]
 800173e:	e7e5      	b.n	800170c <HAL_InitTick+0xc>
 8001740:	24000010 	.word	0x24000010
 8001744:	2400000c 	.word	0x2400000c
 8001748:	24000014 	.word	0x24000014

0800174c <HAL_Init>:
 800174c:	b510      	push	{r4, lr}
 800174e:	2003      	movs	r0, #3
 8001750:	f000 f854 	bl	80017fc <HAL_NVIC_SetPriorityGrouping>
 8001754:	f001 fa3c 	bl	8002bd0 <HAL_RCC_GetSysClockFreq>
 8001758:	490f      	ldr	r1, [pc, #60]	@ (8001798 <HAL_Init+0x4c>)
 800175a:	4a10      	ldr	r2, [pc, #64]	@ (800179c <HAL_Init+0x50>)
 800175c:	698b      	ldr	r3, [r1, #24]
 800175e:	f3c3 2303 	ubfx	r3, r3, #8, #4
 8001762:	5cd3      	ldrb	r3, [r2, r3]
 8001764:	f003 031f 	and.w	r3, r3, #31
 8001768:	40d8      	lsrs	r0, r3
 800176a:	698b      	ldr	r3, [r1, #24]
 800176c:	f003 030f 	and.w	r3, r3, #15
 8001770:	5cd3      	ldrb	r3, [r2, r3]
 8001772:	4a0b      	ldr	r2, [pc, #44]	@ (80017a0 <HAL_Init+0x54>)
 8001774:	f003 031f 	and.w	r3, r3, #31
 8001778:	fa20 f303 	lsr.w	r3, r0, r3
 800177c:	6013      	str	r3, [r2, #0]
 800177e:	4b09      	ldr	r3, [pc, #36]	@ (80017a4 <HAL_Init+0x58>)
 8001780:	6018      	str	r0, [r3, #0]
 8001782:	2000      	movs	r0, #0
 8001784:	f7ff ffbc 	bl	8001700 <HAL_InitTick>
 8001788:	4604      	mov	r4, r0
 800178a:	b918      	cbnz	r0, 8001794 <HAL_Init+0x48>
 800178c:	f7ff fd28 	bl	80011e0 <HAL_MspInit>
 8001790:	4620      	mov	r0, r4
 8001792:	bd10      	pop	{r4, pc}
 8001794:	2401      	movs	r4, #1
 8001796:	e7fb      	b.n	8001790 <HAL_Init+0x44>
 8001798:	58024400 	.word	0x58024400
 800179c:	08005078 	.word	0x08005078
 80017a0:	24000008 	.word	0x24000008
 80017a4:	2400000c 	.word	0x2400000c

080017a8 <HAL_IncTick>:
 80017a8:	4a03      	ldr	r2, [pc, #12]	@ (80017b8 <HAL_IncTick+0x10>)
 80017aa:	4b04      	ldr	r3, [pc, #16]	@ (80017bc <HAL_IncTick+0x14>)
 80017ac:	6811      	ldr	r1, [r2, #0]
 80017ae:	781b      	ldrb	r3, [r3, #0]
 80017b0:	440b      	add	r3, r1
 80017b2:	6013      	str	r3, [r2, #0]
 80017b4:	4770      	bx	lr
 80017b6:	bf00      	nop
 80017b8:	24000558 	.word	0x24000558
 80017bc:	24000010 	.word	0x24000010

080017c0 <HAL_GetTick>:
 80017c0:	4b01      	ldr	r3, [pc, #4]	@ (80017c8 <HAL_GetTick+0x8>)
 80017c2:	6818      	ldr	r0, [r3, #0]
 80017c4:	4770      	bx	lr
 80017c6:	bf00      	nop
 80017c8:	24000558 	.word	0x24000558

080017cc <HAL_Delay>:
 80017cc:	b538      	push	{r3, r4, r5, lr}
 80017ce:	4604      	mov	r4, r0
 80017d0:	f7ff fff6 	bl	80017c0 <HAL_GetTick>
 80017d4:	4605      	mov	r5, r0
 80017d6:	1c63      	adds	r3, r4, #1
 80017d8:	bf1e      	ittt	ne
 80017da:	4b04      	ldrne	r3, [pc, #16]	@ (80017ec <HAL_Delay+0x20>)
 80017dc:	781b      	ldrbne	r3, [r3, #0]
 80017de:	18e4      	addne	r4, r4, r3
 80017e0:	f7ff ffee 	bl	80017c0 <HAL_GetTick>
 80017e4:	1b43      	subs	r3, r0, r5
 80017e6:	42a3      	cmp	r3, r4
 80017e8:	d3fa      	bcc.n	80017e0 <HAL_Delay+0x14>
 80017ea:	bd38      	pop	{r3, r4, r5, pc}
 80017ec:	24000010 	.word	0x24000010

080017f0 <HAL_GetREVID>:
 80017f0:	4b01      	ldr	r3, [pc, #4]	@ (80017f8 <HAL_GetREVID+0x8>)
 80017f2:	6818      	ldr	r0, [r3, #0]
 80017f4:	0c00      	lsrs	r0, r0, #16
 80017f6:	4770      	bx	lr
 80017f8:	5c001000 	.word	0x5c001000

080017fc <HAL_NVIC_SetPriorityGrouping>:
 80017fc:	4907      	ldr	r1, [pc, #28]	@ (800181c <HAL_NVIC_SetPriorityGrouping+0x20>)
 80017fe:	0203      	lsls	r3, r0, #8
 8001800:	68ca      	ldr	r2, [r1, #12]
 8001802:	f403 63e0 	and.w	r3, r3, #1792	@ 0x700
 8001806:	f422 62e0 	bic.w	r2, r2, #1792	@ 0x700
 800180a:	0412      	lsls	r2, r2, #16
 800180c:	0c12      	lsrs	r2, r2, #16
 800180e:	4313      	orrs	r3, r2
 8001810:	f043 63bf 	orr.w	r3, r3, #100139008	@ 0x5f80000
 8001814:	f443 3300 	orr.w	r3, r3, #131072	@ 0x20000
 8001818:	60cb      	str	r3, [r1, #12]
 800181a:	4770      	bx	lr
 800181c:	e000ed00 	.word	0xe000ed00

08001820 <HAL_NVIC_SetPriority>:
 8001820:	4b16      	ldr	r3, [pc, #88]	@ (800187c <HAL_NVIC_SetPriority+0x5c>)
 8001822:	b530      	push	{r4, r5, lr}
 8001824:	68dc      	ldr	r4, [r3, #12]
 8001826:	f3c4 2402 	ubfx	r4, r4, #8, #3
 800182a:	f1c4 0307 	rsb	r3, r4, #7
 800182e:	1d25      	adds	r5, r4, #4
 8001830:	2b04      	cmp	r3, #4
 8001832:	bf28      	it	cs
 8001834:	2304      	movcs	r3, #4
 8001836:	2d06      	cmp	r5, #6
 8001838:	f04f 35ff 	mov.w	r5, #4294967295
 800183c:	bf8c      	ite	hi
 800183e:	3c03      	subhi	r4, #3
 8001840:	2400      	movls	r4, #0
 8001842:	fa05 f303 	lsl.w	r3, r5, r3
 8001846:	2800      	cmp	r0, #0
 8001848:	fa05 f504 	lsl.w	r5, r5, r4
 800184c:	ea21 0303 	bic.w	r3, r1, r3
 8001850:	ea22 0205 	bic.w	r2, r2, r5
 8001854:	fa03 f304 	lsl.w	r3, r3, r4
 8001858:	ea43 0302 	orr.w	r3, r3, r2
 800185c:	ea4f 1303 	mov.w	r3, r3, lsl #4
 8001860:	b2db      	uxtb	r3, r3
 8001862:	db06      	blt.n	8001872 <HAL_NVIC_SetPriority+0x52>
 8001864:	f100 4060 	add.w	r0, r0, #3758096384	@ 0xe0000000
 8001868:	f500 4061 	add.w	r0, r0, #57600	@ 0xe100
 800186c:	f880 3300 	strb.w	r3, [r0, #768]	@ 0x300
 8001870:	bd30      	pop	{r4, r5, pc}
 8001872:	f000 000f 	and.w	r0, r0, #15
 8001876:	4a02      	ldr	r2, [pc, #8]	@ (8001880 <HAL_NVIC_SetPriority+0x60>)
 8001878:	5413      	strb	r3, [r2, r0]
 800187a:	e7f9      	b.n	8001870 <HAL_NVIC_SetPriority+0x50>
 800187c:	e000ed00 	.word	0xe000ed00
 8001880:	e000ed14 	.word	0xe000ed14

08001884 <HAL_NVIC_EnableIRQ>:
 8001884:	2800      	cmp	r0, #0
 8001886:	db07      	blt.n	8001898 <HAL_NVIC_EnableIRQ+0x14>
 8001888:	0941      	lsrs	r1, r0, #5
 800188a:	2301      	movs	r3, #1
 800188c:	f000 001f 	and.w	r0, r0, #31
 8001890:	4a02      	ldr	r2, [pc, #8]	@ (800189c <HAL_NVIC_EnableIRQ+0x18>)
 8001892:	4083      	lsls	r3, r0
 8001894:	f842 3021 	str.w	r3, [r2, r1, lsl #2]
 8001898:	4770      	bx	lr
 800189a:	bf00      	nop
 800189c:	e000e100 	.word	0xe000e100

080018a0 <HAL_SYSTICK_Config>:
 80018a0:	3801      	subs	r0, #1
 80018a2:	f1b0 7f80 	cmp.w	r0, #16777216	@ 0x1000000
 80018a6:	d20b      	bcs.n	80018c0 <HAL_SYSTICK_Config+0x20>
 80018a8:	f04f 23e0 	mov.w	r3, #3758153728	@ 0xe000e000
 80018ac:	4a05      	ldr	r2, [pc, #20]	@ (80018c4 <HAL_SYSTICK_Config+0x24>)
 80018ae:	21f0      	movs	r1, #240	@ 0xf0
 80018b0:	6158      	str	r0, [r3, #20]
 80018b2:	2000      	movs	r0, #0
 80018b4:	f882 1023 	strb.w	r1, [r2, #35]	@ 0x23
 80018b8:	2207      	movs	r2, #7
 80018ba:	6198      	str	r0, [r3, #24]
 80018bc:	611a      	str	r2, [r3, #16]
 80018be:	4770      	bx	lr
 80018c0:	2001      	movs	r0, #1
 80018c2:	4770      	bx	lr
 80018c4:	e000ed00 	.word	0xe000ed00

080018c8 <HAL_DMA_Abort_IT>:
 80018c8:	b508      	push	{r3, lr}
 80018ca:	b128      	cbz	r0, 80018d8 <HAL_DMA_Abort_IT+0x10>
 80018cc:	f890 3035 	ldrb.w	r3, [r0, #53]	@ 0x35
 80018d0:	2b02      	cmp	r3, #2
 80018d2:	d003      	beq.n	80018dc <HAL_DMA_Abort_IT+0x14>
 80018d4:	2380      	movs	r3, #128	@ 0x80
 80018d6:	6543      	str	r3, [r0, #84]	@ 0x54
 80018d8:	2001      	movs	r0, #1
 80018da:	e05d      	b.n	8001998 <HAL_DMA_Abort_IT+0xd0>
 80018dc:	6803      	ldr	r3, [r0, #0]
 80018de:	4a3f      	ldr	r2, [pc, #252]	@ (80019dc <HAL_DMA_Abort_IT+0x114>)
 80018e0:	4293      	cmp	r3, r2
 80018e2:	d051      	beq.n	8001988 <HAL_DMA_Abort_IT+0xc0>
 80018e4:	3218      	adds	r2, #24
 80018e6:	4293      	cmp	r3, r2
 80018e8:	d04e      	beq.n	8001988 <HAL_DMA_Abort_IT+0xc0>
 80018ea:	3218      	adds	r2, #24
 80018ec:	4293      	cmp	r3, r2
 80018ee:	d04b      	beq.n	8001988 <HAL_DMA_Abort_IT+0xc0>
 80018f0:	3218      	adds	r2, #24
 80018f2:	4293      	cmp	r3, r2
 80018f4:	d048      	beq.n	8001988 <HAL_DMA_Abort_IT+0xc0>
 80018f6:	3218      	adds	r2, #24
 80018f8:	4293      	cmp	r3, r2
 80018fa:	d045      	beq.n	8001988 <HAL_DMA_Abort_IT+0xc0>
 80018fc:	3218      	adds	r2, #24
 80018fe:	4293      	cmp	r3, r2
 8001900:	d042      	beq.n	8001988 <HAL_DMA_Abort_IT+0xc0>
 8001902:	3218      	adds	r2, #24
 8001904:	4293      	cmp	r3, r2
 8001906:	d03f      	beq.n	8001988 <HAL_DMA_Abort_IT+0xc0>
 8001908:	3218      	adds	r2, #24
 800190a:	4293      	cmp	r3, r2
 800190c:	d03c      	beq.n	8001988 <HAL_DMA_Abort_IT+0xc0>
 800190e:	f502 7256 	add.w	r2, r2, #856	@ 0x358
 8001912:	4293      	cmp	r3, r2
 8001914:	d038      	beq.n	8001988 <HAL_DMA_Abort_IT+0xc0>
 8001916:	3218      	adds	r2, #24
 8001918:	4293      	cmp	r3, r2
 800191a:	d035      	beq.n	8001988 <HAL_DMA_Abort_IT+0xc0>
 800191c:	3218      	adds	r2, #24
 800191e:	4293      	cmp	r3, r2
 8001920:	d032      	beq.n	8001988 <HAL_DMA_Abort_IT+0xc0>
 8001922:	3218      	adds	r2, #24
 8001924:	4293      	cmp	r3, r2
 8001926:	d02f      	beq.n	8001988 <HAL_DMA_Abort_IT+0xc0>
 8001928:	3218      	adds	r2, #24
 800192a:	4293      	cmp	r3, r2
 800192c:	d02c      	beq.n	8001988 <HAL_DMA_Abort_IT+0xc0>
 800192e:	3218      	adds	r2, #24
 8001930:	4293      	cmp	r3, r2
 8001932:	d029      	beq.n	8001988 <HAL_DMA_Abort_IT+0xc0>
 8001934:	3218      	adds	r2, #24
 8001936:	4293      	cmp	r3, r2
 8001938:	d026      	beq.n	8001988 <HAL_DMA_Abort_IT+0xc0>
 800193a:	3218      	adds	r2, #24
 800193c:	4293      	cmp	r3, r2
 800193e:	d023      	beq.n	8001988 <HAL_DMA_Abort_IT+0xc0>
 8001940:	681a      	ldr	r2, [r3, #0]
 8001942:	f022 020e 	bic.w	r2, r2, #14
 8001946:	601a      	str	r2, [r3, #0]
 8001948:	681a      	ldr	r2, [r3, #0]
 800194a:	f022 0201 	bic.w	r2, r2, #1
 800194e:	601a      	str	r2, [r3, #0]
 8001950:	4a23      	ldr	r2, [pc, #140]	@ (80019e0 <HAL_DMA_Abort_IT+0x118>)
 8001952:	4293      	cmp	r3, r2
 8001954:	d121      	bne.n	800199a <HAL_DMA_Abort_IT+0xd2>
 8001956:	6e02      	ldr	r2, [r0, #96]	@ 0x60
 8001958:	6813      	ldr	r3, [r2, #0]
 800195a:	f423 7380 	bic.w	r3, r3, #256	@ 0x100
 800195e:	6013      	str	r3, [r2, #0]
 8001960:	e9d0 1316 	ldrd	r1, r3, [r0, #88]	@ 0x58
 8001964:	f003 021f 	and.w	r2, r3, #31
 8001968:	2301      	movs	r3, #1
 800196a:	4093      	lsls	r3, r2
 800196c:	604b      	str	r3, [r1, #4]
 800196e:	e9d0 3219 	ldrd	r3, r2, [r0, #100]	@ 0x64
 8001972:	605a      	str	r2, [r3, #4]
 8001974:	6ec3      	ldr	r3, [r0, #108]	@ 0x6c
 8001976:	b32b      	cbz	r3, 80019c4 <HAL_DMA_Abort_IT+0xfc>
 8001978:	681a      	ldr	r2, [r3, #0]
 800197a:	f422 7280 	bic.w	r2, r2, #256	@ 0x100
 800197e:	601a      	str	r2, [r3, #0]
 8001980:	e9d0 321c 	ldrd	r3, r2, [r0, #112]	@ 0x70
 8001984:	605a      	str	r2, [r3, #4]
 8001986:	e01d      	b.n	80019c4 <HAL_DMA_Abort_IT+0xfc>
 8001988:	2204      	movs	r2, #4
 800198a:	f880 2035 	strb.w	r2, [r0, #53]	@ 0x35
 800198e:	681a      	ldr	r2, [r3, #0]
 8001990:	f022 0201 	bic.w	r2, r2, #1
 8001994:	601a      	str	r2, [r3, #0]
 8001996:	2000      	movs	r0, #0
 8001998:	bd08      	pop	{r3, pc}
 800199a:	4a12      	ldr	r2, [pc, #72]	@ (80019e4 <HAL_DMA_Abort_IT+0x11c>)
 800199c:	4293      	cmp	r3, r2
 800199e:	d0da      	beq.n	8001956 <HAL_DMA_Abort_IT+0x8e>
 80019a0:	3214      	adds	r2, #20
 80019a2:	4293      	cmp	r3, r2
 80019a4:	d0d7      	beq.n	8001956 <HAL_DMA_Abort_IT+0x8e>
 80019a6:	3214      	adds	r2, #20
 80019a8:	4293      	cmp	r3, r2
 80019aa:	d0d4      	beq.n	8001956 <HAL_DMA_Abort_IT+0x8e>
 80019ac:	3214      	adds	r2, #20
 80019ae:	4293      	cmp	r3, r2
 80019b0:	d0d1      	beq.n	8001956 <HAL_DMA_Abort_IT+0x8e>
 80019b2:	3214      	adds	r2, #20
 80019b4:	4293      	cmp	r3, r2
 80019b6:	d0ce      	beq.n	8001956 <HAL_DMA_Abort_IT+0x8e>
 80019b8:	3214      	adds	r2, #20
 80019ba:	4293      	cmp	r3, r2
 80019bc:	d0cb      	beq.n	8001956 <HAL_DMA_Abort_IT+0x8e>
 80019be:	3214      	adds	r2, #20
 80019c0:	4293      	cmp	r3, r2
 80019c2:	d0c8      	beq.n	8001956 <HAL_DMA_Abort_IT+0x8e>
 80019c4:	2300      	movs	r3, #0
 80019c6:	f880 3034 	strb.w	r3, [r0, #52]	@ 0x34
 80019ca:	2301      	movs	r3, #1
 80019cc:	f880 3035 	strb.w	r3, [r0, #53]	@ 0x35
 80019d0:	6d03      	ldr	r3, [r0, #80]	@ 0x50
 80019d2:	2b00      	cmp	r3, #0
 80019d4:	d0df      	beq.n	8001996 <HAL_DMA_Abort_IT+0xce>
 80019d6:	4798      	blx	r3
 80019d8:	e7dd      	b.n	8001996 <HAL_DMA_Abort_IT+0xce>
 80019da:	bf00      	nop
 80019dc:	40020010 	.word	0x40020010
 80019e0:	58025408 	.word	0x58025408
 80019e4:	5802541c 	.word	0x5802541c

080019e8 <FDCAN_CopyMessageToRAM>:
 80019e8:	b5f0      	push	{r4, r5, r6, r7, lr}
 80019ea:	e9d1 6700 	ldrd	r6, r7, [r1]
 80019ee:	690c      	ldr	r4, [r1, #16]
 80019f0:	688d      	ldr	r5, [r1, #8]
 80019f2:	b9f7      	cbnz	r7, 8001a32 <FDCAN_CopyMessageToRAM+0x4a>
 80019f4:	432c      	orrs	r4, r5
 80019f6:	ea44 4486 	orr.w	r4, r4, r6, lsl #18
 80019fa:	e9d1 6506 	ldrd	r6, r5, [r1, #24]
 80019fe:	4335      	orrs	r5, r6
 8001a00:	694e      	ldr	r6, [r1, #20]
 8001a02:	4335      	orrs	r5, r6
 8001a04:	68ce      	ldr	r6, [r1, #12]
 8001a06:	4335      	orrs	r5, r6
 8001a08:	6a0e      	ldr	r6, [r1, #32]
 8001a0a:	ea45 6506 	orr.w	r5, r5, r6, lsl #24
 8001a0e:	6e86      	ldr	r6, [r0, #104]	@ 0x68
 8001a10:	f8d0 0084 	ldr.w	r0, [r0, #132]	@ 0x84
 8001a14:	4373      	muls	r3, r6
 8001a16:	eb00 0683 	add.w	r6, r0, r3, lsl #2
 8001a1a:	f840 4023 	str.w	r4, [r0, r3, lsl #2]
 8001a1e:	2000      	movs	r0, #0
 8001a20:	4c0f      	ldr	r4, [pc, #60]	@ (8001a60 <FDCAN_CopyMessageToRAM+0x78>)
 8001a22:	6075      	str	r5, [r6, #4]
 8001a24:	3608      	adds	r6, #8
 8001a26:	89cb      	ldrh	r3, [r1, #14]
 8001a28:	3204      	adds	r2, #4
 8001a2a:	5ce3      	ldrb	r3, [r4, r3]
 8001a2c:	4283      	cmp	r3, r0
 8001a2e:	d805      	bhi.n	8001a3c <FDCAN_CopyMessageToRAM+0x54>
 8001a30:	bdf0      	pop	{r4, r5, r6, r7, pc}
 8001a32:	4334      	orrs	r4, r6
 8001a34:	432c      	orrs	r4, r5
 8001a36:	f044 4480 	orr.w	r4, r4, #1073741824	@ 0x40000000
 8001a3a:	e7de      	b.n	80019fa <FDCAN_CopyMessageToRAM+0x12>
 8001a3c:	f812 3c02 	ldrb.w	r3, [r2, #-2]
 8001a40:	f812 5c01 	ldrb.w	r5, [r2, #-1]
 8001a44:	041b      	lsls	r3, r3, #16
 8001a46:	ea43 6305 	orr.w	r3, r3, r5, lsl #24
 8001a4a:	f812 5c04 	ldrb.w	r5, [r2, #-4]
 8001a4e:	432b      	orrs	r3, r5
 8001a50:	f812 5c03 	ldrb.w	r5, [r2, #-3]
 8001a54:	ea43 2305 	orr.w	r3, r3, r5, lsl #8
 8001a58:	5033      	str	r3, [r6, r0]
 8001a5a:	3004      	adds	r0, #4
 8001a5c:	e7e3      	b.n	8001a26 <FDCAN_CopyMessageToRAM+0x3e>
 8001a5e:	bf00      	nop
 8001a60:	08005088 	.word	0x08005088

08001a64 <HAL_FDCAN_Init>:
 8001a64:	e92d 4ff0 	stmdb	sp!, {r4, r5, r6, r7, r8, r9, sl, fp, lr}
 8001a68:	b099      	sub	sp, #100	@ 0x64
 8001a6a:	4604      	mov	r4, r0
 8001a6c:	224c      	movs	r2, #76	@ 0x4c
 8001a6e:	49cc      	ldr	r1, [pc, #816]	@ (8001da0 <HAL_FDCAN_Init+0x33c>)
 8001a70:	a805      	add	r0, sp, #20
 8001a72:	f003 fabd 	bl	8004ff0 <memcpy>
 8001a76:	2c00      	cmp	r4, #0
 8001a78:	f000 81b3 	beq.w	8001de2 <HAL_FDCAN_Init+0x37e>
 8001a7c:	4bc9      	ldr	r3, [pc, #804]	@ (8001da4 <HAL_FDCAN_Init+0x340>)
 8001a7e:	6822      	ldr	r2, [r4, #0]
 8001a80:	429a      	cmp	r2, r3
 8001a82:	bf04      	itt	eq
 8001a84:	f503 7380 	addeq.w	r3, r3, #256	@ 0x100
 8001a88:	6063      	streq	r3, [r4, #4]
 8001a8a:	f894 3098 	ldrb.w	r3, [r4, #152]	@ 0x98
 8001a8e:	f003 02ff 	and.w	r2, r3, #255	@ 0xff
 8001a92:	b923      	cbnz	r3, 8001a9e <HAL_FDCAN_Init+0x3a>
 8001a94:	4620      	mov	r0, r4
 8001a96:	f884 2099 	strb.w	r2, [r4, #153]	@ 0x99
 8001a9a:	f7ff fbb3 	bl	8001204 <HAL_FDCAN_MspInit>
 8001a9e:	6822      	ldr	r2, [r4, #0]
 8001aa0:	6993      	ldr	r3, [r2, #24]
 8001aa2:	f023 0310 	bic.w	r3, r3, #16
 8001aa6:	6193      	str	r3, [r2, #24]
 8001aa8:	f7ff fe8a 	bl	80017c0 <HAL_GetTick>
 8001aac:	4605      	mov	r5, r0
 8001aae:	6823      	ldr	r3, [r4, #0]
 8001ab0:	699a      	ldr	r2, [r3, #24]
 8001ab2:	0711      	lsls	r1, r2, #28
 8001ab4:	f100 8186 	bmi.w	8001dc4 <HAL_FDCAN_Init+0x360>
 8001ab8:	699a      	ldr	r2, [r3, #24]
 8001aba:	f042 0201 	orr.w	r2, r2, #1
 8001abe:	619a      	str	r2, [r3, #24]
 8001ac0:	f7ff fe7e 	bl	80017c0 <HAL_GetTick>
 8001ac4:	4605      	mov	r5, r0
 8001ac6:	6823      	ldr	r3, [r4, #0]
 8001ac8:	699a      	ldr	r2, [r3, #24]
 8001aca:	07d2      	lsls	r2, r2, #31
 8001acc:	f140 818d 	bpl.w	8001dea <HAL_FDCAN_Init+0x386>
 8001ad0:	699a      	ldr	r2, [r3, #24]
 8001ad2:	f042 0202 	orr.w	r2, r2, #2
 8001ad6:	619a      	str	r2, [r3, #24]
 8001ad8:	7c22      	ldrb	r2, [r4, #16]
 8001ada:	2a01      	cmp	r2, #1
 8001adc:	699a      	ldr	r2, [r3, #24]
 8001ade:	bf0c      	ite	eq
 8001ae0:	f022 0240 	biceq.w	r2, r2, #64	@ 0x40
 8001ae4:	f042 0240 	orrne.w	r2, r2, #64	@ 0x40
 8001ae8:	619a      	str	r2, [r3, #24]
 8001aea:	7c62      	ldrb	r2, [r4, #17]
 8001aec:	2a01      	cmp	r2, #1
 8001aee:	699a      	ldr	r2, [r3, #24]
 8001af0:	bf0c      	ite	eq
 8001af2:	f442 4280 	orreq.w	r2, r2, #16384	@ 0x4000
 8001af6:	f422 4280 	bicne.w	r2, r2, #16384	@ 0x4000
 8001afa:	619a      	str	r2, [r3, #24]
 8001afc:	7ca2      	ldrb	r2, [r4, #18]
 8001afe:	2a01      	cmp	r2, #1
 8001b00:	699a      	ldr	r2, [r3, #24]
 8001b02:	bf0c      	ite	eq
 8001b04:	f422 5280 	biceq.w	r2, r2, #4096	@ 0x1000
 8001b08:	f442 5280 	orrne.w	r2, r2, #4096	@ 0x1000
 8001b0c:	619a      	str	r2, [r3, #24]
 8001b0e:	699a      	ldr	r2, [r3, #24]
 8001b10:	68a0      	ldr	r0, [r4, #8]
 8001b12:	f422 7240 	bic.w	r2, r2, #768	@ 0x300
 8001b16:	4302      	orrs	r2, r0
 8001b18:	619a      	str	r2, [r3, #24]
 8001b1a:	699a      	ldr	r2, [r3, #24]
 8001b1c:	f022 02a4 	bic.w	r2, r2, #164	@ 0xa4
 8001b20:	619a      	str	r2, [r3, #24]
 8001b22:	691a      	ldr	r2, [r3, #16]
 8001b24:	f022 0210 	bic.w	r2, r2, #16
 8001b28:	611a      	str	r2, [r3, #16]
 8001b2a:	68e2      	ldr	r2, [r4, #12]
 8001b2c:	2a01      	cmp	r2, #1
 8001b2e:	f040 8163 	bne.w	8001df8 <HAL_FDCAN_Init+0x394>
 8001b32:	699a      	ldr	r2, [r3, #24]
 8001b34:	f042 0204 	orr.w	r2, r2, #4
 8001b38:	619a      	str	r2, [r3, #24]
 8001b3a:	69a2      	ldr	r2, [r4, #24]
 8001b3c:	f5b0 7f40 	cmp.w	r0, #768	@ 0x300
 8001b40:	f102 31ff 	add.w	r1, r2, #4294967295
 8001b44:	69e2      	ldr	r2, [r4, #28]
 8001b46:	f102 32ff 	add.w	r2, r2, #4294967295
 8001b4a:	ea4f 2202 	mov.w	r2, r2, lsl #8
 8001b4e:	ea42 6241 	orr.w	r2, r2, r1, lsl #25
 8001b52:	6a21      	ldr	r1, [r4, #32]
 8001b54:	f101 31ff 	add.w	r1, r1, #4294967295
 8001b58:	ea42 0201 	orr.w	r2, r2, r1
 8001b5c:	6961      	ldr	r1, [r4, #20]
 8001b5e:	f101 31ff 	add.w	r1, r1, #4294967295
 8001b62:	ea42 4201 	orr.w	r2, r2, r1, lsl #16
 8001b66:	61da      	str	r2, [r3, #28]
 8001b68:	d10e      	bne.n	8001b88 <HAL_FDCAN_Init+0x124>
 8001b6a:	6ae2      	ldr	r2, [r4, #44]	@ 0x2c
 8001b6c:	1e51      	subs	r1, r2, #1
 8001b6e:	6b22      	ldr	r2, [r4, #48]	@ 0x30
 8001b70:	3a01      	subs	r2, #1
 8001b72:	0112      	lsls	r2, r2, #4
 8001b74:	ea42 2201 	orr.w	r2, r2, r1, lsl #8
 8001b78:	6aa1      	ldr	r1, [r4, #40]	@ 0x28
 8001b7a:	3901      	subs	r1, #1
 8001b7c:	430a      	orrs	r2, r1
 8001b7e:	6a61      	ldr	r1, [r4, #36]	@ 0x24
 8001b80:	3901      	subs	r1, #1
 8001b82:	ea42 4201 	orr.w	r2, r2, r1, lsl #16
 8001b86:	60da      	str	r2, [r3, #12]
 8001b88:	6e26      	ldr	r6, [r4, #96]	@ 0x60
 8001b8a:	b12e      	cbz	r6, 8001b98 <HAL_FDCAN_Init+0x134>
 8001b8c:	f8d3 20c0 	ldr.w	r2, [r3, #192]	@ 0xc0
 8001b90:	6e61      	ldr	r1, [r4, #100]	@ 0x64
 8001b92:	430a      	orrs	r2, r1
 8001b94:	f8c3 20c0 	str.w	r2, [r3, #192]	@ 0xc0
 8001b98:	f8d4 e05c 	ldr.w	lr, [r4, #92]	@ 0x5c
 8001b9c:	6ea2      	ldr	r2, [r4, #104]	@ 0x68
 8001b9e:	eb16 0f0e 	cmn.w	r6, lr
 8001ba2:	9201      	str	r2, [sp, #4]
 8001ba4:	d00c      	beq.n	8001bc0 <HAL_FDCAN_Init+0x15c>
 8001ba6:	a818      	add	r0, sp, #96	@ 0x60
 8001ba8:	9901      	ldr	r1, [sp, #4]
 8001baa:	f8d3 20c8 	ldr.w	r2, [r3, #200]	@ 0xc8
 8001bae:	eb00 0181 	add.w	r1, r0, r1, lsl #2
 8001bb2:	f022 0207 	bic.w	r2, r2, #7
 8001bb6:	f851 1c4c 	ldr.w	r1, [r1, #-76]
 8001bba:	430a      	orrs	r2, r1
 8001bbc:	f8c3 20c8 	str.w	r2, [r3, #200]	@ 0xc8
 8001bc0:	e9d4 c210 	ldrd	ip, r2, [r4, #64]	@ 0x40
 8001bc4:	9203      	str	r2, [sp, #12]
 8001bc6:	f1bc 0f00 	cmp.w	ip, #0
 8001bca:	d00c      	beq.n	8001be6 <HAL_FDCAN_Init+0x182>
 8001bcc:	a818      	add	r0, sp, #96	@ 0x60
 8001bce:	9903      	ldr	r1, [sp, #12]
 8001bd0:	f8d3 20bc 	ldr.w	r2, [r3, #188]	@ 0xbc
 8001bd4:	eb00 0181 	add.w	r1, r0, r1, lsl #2
 8001bd8:	f022 0207 	bic.w	r2, r2, #7
 8001bdc:	f851 1c4c 	ldr.w	r1, [r1, #-76]
 8001be0:	430a      	orrs	r2, r1
 8001be2:	f8c3 20bc 	str.w	r2, [r3, #188]	@ 0xbc
 8001be6:	e9d4 8912 	ldrd	r8, r9, [r4, #72]	@ 0x48
 8001bea:	f1b8 0f00 	cmp.w	r8, #0
 8001bee:	d00c      	beq.n	8001c0a <HAL_FDCAN_Init+0x1a6>
 8001bf0:	a918      	add	r1, sp, #96	@ 0x60
 8001bf2:	f8d3 20bc 	ldr.w	r2, [r3, #188]	@ 0xbc
 8001bf6:	eb01 0189 	add.w	r1, r1, r9, lsl #2
 8001bfa:	f022 0270 	bic.w	r2, r2, #112	@ 0x70
 8001bfe:	f851 1c4c 	ldr.w	r1, [r1, #-76]
 8001c02:	ea42 1201 	orr.w	r2, r2, r1, lsl #4
 8001c06:	f8c3 20bc 	str.w	r2, [r3, #188]	@ 0xbc
 8001c0a:	6d22      	ldr	r2, [r4, #80]	@ 0x50
 8001c0c:	f8d4 b054 	ldr.w	fp, [r4, #84]	@ 0x54
 8001c10:	9202      	str	r2, [sp, #8]
 8001c12:	b162      	cbz	r2, 8001c2e <HAL_FDCAN_Init+0x1ca>
 8001c14:	a918      	add	r1, sp, #96	@ 0x60
 8001c16:	f8d3 20bc 	ldr.w	r2, [r3, #188]	@ 0xbc
 8001c1a:	eb01 018b 	add.w	r1, r1, fp, lsl #2
 8001c1e:	f422 62e0 	bic.w	r2, r2, #1792	@ 0x700
 8001c22:	f851 1c4c 	ldr.w	r1, [r1, #-76]
 8001c26:	ea42 2201 	orr.w	r2, r2, r1, lsl #8
 8001c2a:	f8c3 20bc 	str.w	r2, [r3, #188]	@ 0xbc
 8001c2e:	4a5d      	ldr	r2, [pc, #372]	@ (8001da4 <HAL_FDCAN_Init+0x340>)
 8001c30:	4293      	cmp	r3, r2
 8001c32:	d104      	bne.n	8001c3e <HAL_FDCAN_Init+0x1da>
 8001c34:	6861      	ldr	r1, [r4, #4]
 8001c36:	688a      	ldr	r2, [r1, #8]
 8001c38:	f022 0203 	bic.w	r2, r2, #3
 8001c3c:	608a      	str	r2, [r1, #8]
 8001c3e:	2200      	movs	r2, #0
 8001c40:	4d59      	ldr	r5, [pc, #356]	@ (8001da8 <HAL_FDCAN_Init+0x344>)
 8001c42:	6b60      	ldr	r0, [r4, #52]	@ 0x34
 8001c44:	f8c4 209c 	str.w	r2, [r4, #156]	@ 0x9c
 8001c48:	f8c4 2094 	str.w	r2, [r4, #148]	@ 0x94
 8001c4c:	2201      	movs	r2, #1
 8001c4e:	f8d4 a03c 	ldr.w	sl, [r4, #60]	@ 0x3c
 8001c52:	f884 2098 	strb.w	r2, [r4, #152]	@ 0x98
 8001c56:	f8d3 2084 	ldr.w	r2, [r3, #132]	@ 0x84
 8001c5a:	402a      	ands	r2, r5
 8001c5c:	ea42 0280 	orr.w	r2, r2, r0, lsl #2
 8001c60:	f8c3 2084 	str.w	r2, [r3, #132]	@ 0x84
 8001c64:	f8d3 1084 	ldr.w	r1, [r3, #132]	@ 0x84
 8001c68:	6ba2      	ldr	r2, [r4, #56]	@ 0x38
 8001c6a:	f421 017f 	bic.w	r1, r1, #16711680	@ 0xff0000
 8001c6e:	ea41 4102 	orr.w	r1, r1, r2, lsl #16
 8001c72:	f8c3 1084 	str.w	r1, [r3, #132]	@ 0x84
 8001c76:	1881      	adds	r1, r0, r2
 8001c78:	f8d3 7088 	ldr.w	r7, [r3, #136]	@ 0x88
 8001c7c:	f100 5080 	add.w	r0, r0, #268435456	@ 0x10000000
 8001c80:	402f      	ands	r7, r5
 8001c82:	f500 502c 	add.w	r0, r0, #11008	@ 0x2b00
 8001c86:	ea47 0781 	orr.w	r7, r7, r1, lsl #2
 8001c8a:	eb01 014a 	add.w	r1, r1, sl, lsl #1
 8001c8e:	f8c3 7088 	str.w	r7, [r3, #136]	@ 0x88
 8001c92:	0080      	lsls	r0, r0, #2
 8001c94:	f8d3 7088 	ldr.w	r7, [r3, #136]	@ 0x88
 8001c98:	f427 07fe 	bic.w	r7, r7, #8323072	@ 0x7f0000
 8001c9c:	ea47 470a 	orr.w	r7, r7, sl, lsl #16
 8001ca0:	f8c3 7088 	str.w	r7, [r3, #136]	@ 0x88
 8001ca4:	f8d3 70a0 	ldr.w	r7, [r3, #160]	@ 0xa0
 8001ca8:	402f      	ands	r7, r5
 8001caa:	ea47 0781 	orr.w	r7, r7, r1, lsl #2
 8001cae:	f8c3 70a0 	str.w	r7, [r3, #160]	@ 0xa0
 8001cb2:	f8d3 70a0 	ldr.w	r7, [r3, #160]	@ 0xa0
 8001cb6:	f427 07fe 	bic.w	r7, r7, #8323072	@ 0x7f0000
 8001cba:	ea47 470c 	orr.w	r7, r7, ip, lsl #16
 8001cbe:	f8c3 70a0 	str.w	r7, [r3, #160]	@ 0xa0
 8001cc2:	9f03      	ldr	r7, [sp, #12]
 8001cc4:	fb07 fc0c 	mul.w	ip, r7, ip
 8001cc8:	f8d3 70b0 	ldr.w	r7, [r3, #176]	@ 0xb0
 8001ccc:	4461      	add	r1, ip
 8001cce:	402f      	ands	r7, r5
 8001cd0:	ea47 0781 	orr.w	r7, r7, r1, lsl #2
 8001cd4:	f8c3 70b0 	str.w	r7, [r3, #176]	@ 0xb0
 8001cd8:	f8d3 70b0 	ldr.w	r7, [r3, #176]	@ 0xb0
 8001cdc:	f427 07fe 	bic.w	r7, r7, #8323072	@ 0x7f0000
 8001ce0:	ea47 4708 	orr.w	r7, r7, r8, lsl #16
 8001ce4:	f8c3 70b0 	str.w	r7, [r3, #176]	@ 0xb0
 8001ce8:	fb09 f708 	mul.w	r7, r9, r8
 8001cec:	f8d3 80ac 	ldr.w	r8, [r3, #172]	@ 0xac
 8001cf0:	eb01 0907 	add.w	r9, r1, r7
 8001cf4:	ea08 0805 	and.w	r8, r8, r5
 8001cf8:	9902      	ldr	r1, [sp, #8]
 8001cfa:	ea48 0889 	orr.w	r8, r8, r9, lsl #2
 8001cfe:	fb0b fb01 	mul.w	fp, fp, r1
 8001d02:	f8c3 80ac 	str.w	r8, [r3, #172]	@ 0xac
 8001d06:	f8d3 80f0 	ldr.w	r8, [r3, #240]	@ 0xf0
 8001d0a:	eb09 010b 	add.w	r1, r9, fp
 8001d0e:	f8d4 9058 	ldr.w	r9, [r4, #88]	@ 0x58
 8001d12:	ea08 0805 	and.w	r8, r8, r5
 8001d16:	ea48 0881 	orr.w	r8, r8, r1, lsl #2
 8001d1a:	eb01 0149 	add.w	r1, r1, r9, lsl #1
 8001d1e:	f8c3 80f0 	str.w	r8, [r3, #240]	@ 0xf0
 8001d22:	f8d3 80f0 	ldr.w	r8, [r3, #240]	@ 0xf0
 8001d26:	f428 187c 	bic.w	r8, r8, #4128768	@ 0x3f0000
 8001d2a:	ea48 4809 	orr.w	r8, r8, r9, lsl #16
 8001d2e:	f8c3 80f0 	str.w	r8, [r3, #240]	@ 0xf0
 8001d32:	f8d3 80c0 	ldr.w	r8, [r3, #192]	@ 0xc0
 8001d36:	ea08 0805 	and.w	r8, r8, r5
 8001d3a:	ea48 0181 	orr.w	r1, r8, r1, lsl #2
 8001d3e:	f8c3 10c0 	str.w	r1, [r3, #192]	@ 0xc0
 8001d42:	f8d3 10c0 	ldr.w	r1, [r3, #192]	@ 0xc0
 8001d46:	f421 117c 	bic.w	r1, r1, #4128768	@ 0x3f0000
 8001d4a:	ea41 410e 	orr.w	r1, r1, lr, lsl #16
 8001d4e:	f8c3 10c0 	str.w	r1, [r3, #192]	@ 0xc0
 8001d52:	f8d3 10c0 	ldr.w	r1, [r3, #192]	@ 0xc0
 8001d56:	f021 517c 	bic.w	r1, r1, #1056964608	@ 0x3f000000
 8001d5a:	ea41 6106 	orr.w	r1, r1, r6, lsl #24
 8001d5e:	f8c3 10c0 	str.w	r1, [r3, #192]	@ 0xc0
 8001d62:	eb00 0382 	add.w	r3, r0, r2, lsl #2
 8001d66:	9a01      	ldr	r2, [sp, #4]
 8001d68:	6723      	str	r3, [r4, #112]	@ 0x70
 8001d6a:	eb03 03ca 	add.w	r3, r3, sl, lsl #3
 8001d6e:	fb02 fe0e 	mul.w	lr, r2, lr
 8001d72:	6763      	str	r3, [r4, #116]	@ 0x74
 8001d74:	eb03 038c 	add.w	r3, r3, ip, lsl #2
 8001d78:	4356      	muls	r6, r2
 8001d7a:	67a3      	str	r3, [r4, #120]	@ 0x78
 8001d7c:	eb03 0387 	add.w	r3, r3, r7, lsl #2
 8001d80:	66e0      	str	r0, [r4, #108]	@ 0x6c
 8001d82:	67e3      	str	r3, [r4, #124]	@ 0x7c
 8001d84:	eb03 038b 	add.w	r3, r3, fp, lsl #2
 8001d88:	f8c4 3080 	str.w	r3, [r4, #128]	@ 0x80
 8001d8c:	eb03 03c9 	add.w	r3, r3, r9, lsl #3
 8001d90:	f8c4 3084 	str.w	r3, [r4, #132]	@ 0x84
 8001d94:	eb03 038e 	add.w	r3, r3, lr, lsl #2
 8001d98:	eb03 0686 	add.w	r6, r3, r6, lsl #2
 8001d9c:	e006      	b.n	8001dac <HAL_FDCAN_Init+0x348>
 8001d9e:	bf00      	nop
 8001da0:	08005024 	.word	0x08005024
 8001da4:	4000a000 	.word	0x4000a000
 8001da8:	ffff0003 	.word	0xffff0003
 8001dac:	f8c4 3088 	str.w	r3, [r4, #136]	@ 0x88
 8001db0:	4b20      	ldr	r3, [pc, #128]	@ (8001e34 <HAL_FDCAN_Init+0x3d0>)
 8001db2:	f8c4 6090 	str.w	r6, [r4, #144]	@ 0x90
 8001db6:	429e      	cmp	r6, r3
 8001db8:	d935      	bls.n	8001e26 <HAL_FDCAN_Init+0x3c2>
 8001dba:	f8d4 309c 	ldr.w	r3, [r4, #156]	@ 0x9c
 8001dbe:	f043 0320 	orr.w	r3, r3, #32
 8001dc2:	e009      	b.n	8001dd8 <HAL_FDCAN_Init+0x374>
 8001dc4:	f7ff fcfc 	bl	80017c0 <HAL_GetTick>
 8001dc8:	1b40      	subs	r0, r0, r5
 8001dca:	280a      	cmp	r0, #10
 8001dcc:	f67f ae6f 	bls.w	8001aae <HAL_FDCAN_Init+0x4a>
 8001dd0:	f8d4 309c 	ldr.w	r3, [r4, #156]	@ 0x9c
 8001dd4:	f043 0301 	orr.w	r3, r3, #1
 8001dd8:	f8c4 309c 	str.w	r3, [r4, #156]	@ 0x9c
 8001ddc:	2303      	movs	r3, #3
 8001dde:	f884 3098 	strb.w	r3, [r4, #152]	@ 0x98
 8001de2:	2001      	movs	r0, #1
 8001de4:	b019      	add	sp, #100	@ 0x64
 8001de6:	e8bd 8ff0 	ldmia.w	sp!, {r4, r5, r6, r7, r8, r9, sl, fp, pc}
 8001dea:	f7ff fce9 	bl	80017c0 <HAL_GetTick>
 8001dee:	1b40      	subs	r0, r0, r5
 8001df0:	280a      	cmp	r0, #10
 8001df2:	f67f ae68 	bls.w	8001ac6 <HAL_FDCAN_Init+0x62>
 8001df6:	e7eb      	b.n	8001dd0 <HAL_FDCAN_Init+0x36c>
 8001df8:	2a00      	cmp	r2, #0
 8001dfa:	f43f ae9e 	beq.w	8001b3a <HAL_FDCAN_Init+0xd6>
 8001dfe:	2a02      	cmp	r2, #2
 8001e00:	d00a      	beq.n	8001e18 <HAL_FDCAN_Init+0x3b4>
 8001e02:	6999      	ldr	r1, [r3, #24]
 8001e04:	2a03      	cmp	r2, #3
 8001e06:	f041 0180 	orr.w	r1, r1, #128	@ 0x80
 8001e0a:	6199      	str	r1, [r3, #24]
 8001e0c:	6919      	ldr	r1, [r3, #16]
 8001e0e:	f041 0110 	orr.w	r1, r1, #16
 8001e12:	6119      	str	r1, [r3, #16]
 8001e14:	f47f ae91 	bne.w	8001b3a <HAL_FDCAN_Init+0xd6>
 8001e18:	699a      	ldr	r2, [r3, #24]
 8001e1a:	f042 0220 	orr.w	r2, r2, #32
 8001e1e:	e68b      	b.n	8001b38 <HAL_FDCAN_Init+0xd4>
 8001e20:	2300      	movs	r3, #0
 8001e22:	f840 3b04 	str.w	r3, [r0], #4
 8001e26:	f8d4 3090 	ldr.w	r3, [r4, #144]	@ 0x90
 8001e2a:	4298      	cmp	r0, r3
 8001e2c:	d3f8      	bcc.n	8001e20 <HAL_FDCAN_Init+0x3bc>
 8001e2e:	2000      	movs	r0, #0
 8001e30:	e7d8      	b.n	8001de4 <HAL_FDCAN_Init+0x380>
 8001e32:	bf00      	nop
 8001e34:	4000d3fc 	.word	0x4000d3fc

08001e38 <HAL_FDCAN_ConfigFilter>:
 8001e38:	b530      	push	{r4, r5, lr}
 8001e3a:	f890 3098 	ldrb.w	r3, [r0, #152]	@ 0x98
 8001e3e:	3b01      	subs	r3, #1
 8001e40:	2b01      	cmp	r3, #1
 8001e42:	d82d      	bhi.n	8001ea0 <HAL_FDCAN_ConfigFilter+0x68>
 8001e44:	e9d1 5400 	ldrd	r5, r4, [r1]
 8001e48:	e9d1 2303 	ldrd	r2, r3, [r1, #12]
 8001e4c:	b9bd      	cbnz	r5, 8001e7e <HAL_FDCAN_ConfigFilter+0x46>
 8001e4e:	2a07      	cmp	r2, #7
 8001e50:	ea4f 4303 	mov.w	r3, r3, lsl #16
 8001e54:	d10b      	bne.n	8001e6e <HAL_FDCAN_ConfigFilter+0x36>
 8001e56:	69ca      	ldr	r2, [r1, #28]
 8001e58:	ea43 2302 	orr.w	r3, r3, r2, lsl #8
 8001e5c:	698a      	ldr	r2, [r1, #24]
 8001e5e:	4313      	orrs	r3, r2
 8001e60:	f043 5360 	orr.w	r3, r3, #939524096	@ 0x38000000
 8001e64:	6ec2      	ldr	r2, [r0, #108]	@ 0x6c
 8001e66:	f842 3024 	str.w	r3, [r2, r4, lsl #2]
 8001e6a:	2000      	movs	r0, #0
 8001e6c:	bd30      	pop	{r4, r5, pc}
 8001e6e:	688d      	ldr	r5, [r1, #8]
 8001e70:	6949      	ldr	r1, [r1, #20]
 8001e72:	ea43 7385 	orr.w	r3, r3, r5, lsl #30
 8001e76:	430b      	orrs	r3, r1
 8001e78:	ea43 63c2 	orr.w	r3, r3, r2, lsl #27
 8001e7c:	e7f2      	b.n	8001e64 <HAL_FDCAN_ConfigFilter+0x2c>
 8001e7e:	2a07      	cmp	r2, #7
 8001e80:	ea43 7342 	orr.w	r3, r3, r2, lsl #29
 8001e84:	bf1a      	itte	ne
 8001e86:	688d      	ldrne	r5, [r1, #8]
 8001e88:	694a      	ldrne	r2, [r1, #20]
 8001e8a:	698a      	ldreq	r2, [r1, #24]
 8001e8c:	6f01      	ldr	r1, [r0, #112]	@ 0x70
 8001e8e:	bf18      	it	ne
 8001e90:	ea42 7285 	orrne.w	r2, r2, r5, lsl #30
 8001e94:	eb01 00c4 	add.w	r0, r1, r4, lsl #3
 8001e98:	f841 3034 	str.w	r3, [r1, r4, lsl #3]
 8001e9c:	6042      	str	r2, [r0, #4]
 8001e9e:	e7e4      	b.n	8001e6a <HAL_FDCAN_ConfigFilter+0x32>
 8001ea0:	f8d0 309c 	ldr.w	r3, [r0, #156]	@ 0x9c
 8001ea4:	f043 0302 	orr.w	r3, r3, #2
 8001ea8:	f8c0 309c 	str.w	r3, [r0, #156]	@ 0x9c
 8001eac:	2001      	movs	r0, #1
 8001eae:	e7dd      	b.n	8001e6c <HAL_FDCAN_ConfigFilter+0x34>

08001eb0 <HAL_FDCAN_ConfigGlobalFilter>:
 8001eb0:	b510      	push	{r4, lr}
 8001eb2:	f890 4098 	ldrb.w	r4, [r0, #152]	@ 0x98
 8001eb6:	2c01      	cmp	r4, #1
 8001eb8:	d10b      	bne.n	8001ed2 <HAL_FDCAN_ConfigGlobalFilter+0x22>
 8001eba:	6804      	ldr	r4, [r0, #0]
 8001ebc:	9802      	ldr	r0, [sp, #8]
 8001ebe:	ea40 0043 	orr.w	r0, r0, r3, lsl #1
 8001ec2:	ea40 0282 	orr.w	r2, r0, r2, lsl #2
 8001ec6:	2000      	movs	r0, #0
 8001ec8:	ea42 1101 	orr.w	r1, r2, r1, lsl #4
 8001ecc:	f8c4 1080 	str.w	r1, [r4, #128]	@ 0x80
 8001ed0:	bd10      	pop	{r4, pc}
 8001ed2:	f8d0 309c 	ldr.w	r3, [r0, #156]	@ 0x9c
 8001ed6:	f043 0304 	orr.w	r3, r3, #4
 8001eda:	f8c0 309c 	str.w	r3, [r0, #156]	@ 0x9c
 8001ede:	2001      	movs	r0, #1
 8001ee0:	e7f6      	b.n	8001ed0 <HAL_FDCAN_ConfigGlobalFilter+0x20>

08001ee2 <HAL_FDCAN_Start>:
 8001ee2:	f890 3098 	ldrb.w	r3, [r0, #152]	@ 0x98
 8001ee6:	2b01      	cmp	r3, #1
 8001ee8:	d10c      	bne.n	8001f04 <HAL_FDCAN_Start+0x22>
 8001eea:	6802      	ldr	r2, [r0, #0]
 8001eec:	2302      	movs	r3, #2
 8001eee:	f880 3098 	strb.w	r3, [r0, #152]	@ 0x98
 8001ef2:	6993      	ldr	r3, [r2, #24]
 8001ef4:	f023 0301 	bic.w	r3, r3, #1
 8001ef8:	6193      	str	r3, [r2, #24]
 8001efa:	2300      	movs	r3, #0
 8001efc:	f8c0 309c 	str.w	r3, [r0, #156]	@ 0x9c
 8001f00:	4618      	mov	r0, r3
 8001f02:	4770      	bx	lr
 8001f04:	f8d0 309c 	ldr.w	r3, [r0, #156]	@ 0x9c
 8001f08:	f043 0304 	orr.w	r3, r3, #4
 8001f0c:	f8c0 309c 	str.w	r3, [r0, #156]	@ 0x9c
 8001f10:	2001      	movs	r0, #1
 8001f12:	4770      	bx	lr

08001f14 <HAL_FDCAN_AddMessageToTxFifoQ>:
 8001f14:	b5f8      	push	{r3, r4, r5, r6, r7, lr}
 8001f16:	f890 3098 	ldrb.w	r3, [r0, #152]	@ 0x98
 8001f1a:	4604      	mov	r4, r0
 8001f1c:	2b02      	cmp	r3, #2
 8001f1e:	d126      	bne.n	8001f6e <HAL_FDCAN_AddMessageToTxFifoQ+0x5a>
 8001f20:	6806      	ldr	r6, [r0, #0]
 8001f22:	f8d6 30c0 	ldr.w	r3, [r6, #192]	@ 0xc0
 8001f26:	f013 5f7c 	tst.w	r3, #1056964608	@ 0x3f000000
 8001f2a:	d107      	bne.n	8001f3c <HAL_FDCAN_AddMessageToTxFifoQ+0x28>
 8001f2c:	f8d0 309c 	ldr.w	r3, [r0, #156]	@ 0x9c
 8001f30:	f043 0320 	orr.w	r3, r3, #32
 8001f34:	2001      	movs	r0, #1
 8001f36:	f8c4 309c 	str.w	r3, [r4, #156]	@ 0x9c
 8001f3a:	bdf8      	pop	{r3, r4, r5, r6, r7, pc}
 8001f3c:	f8d6 50c4 	ldr.w	r5, [r6, #196]	@ 0xc4
 8001f40:	f415 1500 	ands.w	r5, r5, #2097152	@ 0x200000
 8001f44:	d004      	beq.n	8001f50 <HAL_FDCAN_AddMessageToTxFifoQ+0x3c>
 8001f46:	f8d0 309c 	ldr.w	r3, [r0, #156]	@ 0x9c
 8001f4a:	f443 7300 	orr.w	r3, r3, #512	@ 0x200
 8001f4e:	e7f1      	b.n	8001f34 <HAL_FDCAN_AddMessageToTxFifoQ+0x20>
 8001f50:	f8d6 70c4 	ldr.w	r7, [r6, #196]	@ 0xc4
 8001f54:	f3c7 4704 	ubfx	r7, r7, #16, #5
 8001f58:	463b      	mov	r3, r7
 8001f5a:	f7ff fd45 	bl	80019e8 <FDCAN_CopyMessageToRAM>
 8001f5e:	2201      	movs	r2, #1
 8001f60:	4628      	mov	r0, r5
 8001f62:	40ba      	lsls	r2, r7
 8001f64:	f8c6 20d0 	str.w	r2, [r6, #208]	@ 0xd0
 8001f68:	f8c4 2094 	str.w	r2, [r4, #148]	@ 0x94
 8001f6c:	e7e5      	b.n	8001f3a <HAL_FDCAN_AddMessageToTxFifoQ+0x26>
 8001f6e:	f8d0 309c 	ldr.w	r3, [r0, #156]	@ 0x9c
 8001f72:	f043 0308 	orr.w	r3, r3, #8
 8001f76:	e7dd      	b.n	8001f34 <HAL_FDCAN_AddMessageToTxFifoQ+0x20>

08001f78 <HAL_FDCAN_GetRxMessage>:
 8001f78:	b5f0      	push	{r4, r5, r6, r7, lr}
 8001f7a:	f890 4098 	ldrb.w	r4, [r0, #152]	@ 0x98
 8001f7e:	2c02      	cmp	r4, #2
 8001f80:	f040 80a5 	bne.w	80020ce <HAL_FDCAN_GetRxMessage+0x156>
 8001f84:	2940      	cmp	r1, #64	@ 0x40
 8001f86:	d163      	bne.n	8002050 <HAL_FDCAN_GetRxMessage+0xd8>
 8001f88:	6804      	ldr	r4, [r0, #0]
 8001f8a:	f8d4 50a0 	ldr.w	r5, [r4, #160]	@ 0xa0
 8001f8e:	f415 0ffe 	tst.w	r5, #8323072	@ 0x7f0000
 8001f92:	d104      	bne.n	8001f9e <HAL_FDCAN_GetRxMessage+0x26>
 8001f94:	f8d0 309c 	ldr.w	r3, [r0, #156]	@ 0x9c
 8001f98:	f043 0320 	orr.w	r3, r3, #32
 8001f9c:	e007      	b.n	8001fae <HAL_FDCAN_GetRxMessage+0x36>
 8001f9e:	f8d4 50a4 	ldr.w	r5, [r4, #164]	@ 0xa4
 8001fa2:	066d      	lsls	r5, r5, #25
 8001fa4:	d107      	bne.n	8001fb6 <HAL_FDCAN_GetRxMessage+0x3e>
 8001fa6:	f8d0 309c 	ldr.w	r3, [r0, #156]	@ 0x9c
 8001faa:	f443 7380 	orr.w	r3, r3, #256	@ 0x100
 8001fae:	f8c0 309c 	str.w	r3, [r0, #156]	@ 0x9c
 8001fb2:	2001      	movs	r0, #1
 8001fb4:	bdf0      	pop	{r4, r5, r6, r7, pc}
 8001fb6:	f8d4 50a4 	ldr.w	r5, [r4, #164]	@ 0xa4
 8001fba:	01ef      	lsls	r7, r5, #7
 8001fbc:	d501      	bpl.n	8001fc2 <HAL_FDCAN_GetRxMessage+0x4a>
 8001fbe:	f8d4 50a0 	ldr.w	r5, [r4, #160]	@ 0xa0
 8001fc2:	f8d4 50a4 	ldr.w	r5, [r4, #164]	@ 0xa4
 8001fc6:	6c44      	ldr	r4, [r0, #68]	@ 0x44
 8001fc8:	f3c5 2505 	ubfx	r5, r5, #8, #6
 8001fcc:	6f46      	ldr	r6, [r0, #116]	@ 0x74
 8001fce:	436c      	muls	r4, r5
 8001fd0:	eb06 0484 	add.w	r4, r6, r4, lsl #2
 8001fd4:	6827      	ldr	r7, [r4, #0]
 8001fd6:	f007 4780 	and.w	r7, r7, #1073741824	@ 0x40000000
 8001fda:	6057      	str	r7, [r2, #4]
 8001fdc:	6826      	ldr	r6, [r4, #0]
 8001fde:	2f00      	cmp	r7, #0
 8001fe0:	d15a      	bne.n	8002098 <HAL_FDCAN_GetRxMessage+0x120>
 8001fe2:	f3c6 468a 	ubfx	r6, r6, #18, #11
 8001fe6:	6016      	str	r6, [r2, #0]
 8001fe8:	3407      	adds	r4, #7
 8001fea:	f854 6c07 	ldr.w	r6, [r4, #-7]
 8001fee:	f8df c0e8 	ldr.w	ip, [pc, #232]	@ 80020d8 <HAL_FDCAN_GetRxMessage+0x160>
 8001ff2:	f006 5600 	and.w	r6, r6, #536870912	@ 0x20000000
 8001ff6:	6096      	str	r6, [r2, #8]
 8001ff8:	f854 6c07 	ldr.w	r6, [r4, #-7]
 8001ffc:	f006 4600 	and.w	r6, r6, #2147483648	@ 0x80000000
 8002000:	6116      	str	r6, [r2, #16]
 8002002:	f834 6c03 	ldrh.w	r6, [r4, #-3]
 8002006:	61d6      	str	r6, [r2, #28]
 8002008:	f854 6c03 	ldr.w	r6, [r4, #-3]
 800200c:	f406 2670 	and.w	r6, r6, #983040	@ 0xf0000
 8002010:	60d6      	str	r6, [r2, #12]
 8002012:	f854 6c03 	ldr.w	r6, [r4, #-3]
 8002016:	f406 1680 	and.w	r6, r6, #1048576	@ 0x100000
 800201a:	6156      	str	r6, [r2, #20]
 800201c:	f854 6c03 	ldr.w	r6, [r4, #-3]
 8002020:	f406 1600 	and.w	r6, r6, #2097152	@ 0x200000
 8002024:	6196      	str	r6, [r2, #24]
 8002026:	7826      	ldrb	r6, [r4, #0]
 8002028:	f006 067f 	and.w	r6, r6, #127	@ 0x7f
 800202c:	6216      	str	r6, [r2, #32]
 800202e:	f854 6c03 	ldr.w	r6, [r4, #-3]
 8002032:	0ff6      	lsrs	r6, r6, #31
 8002034:	6256      	str	r6, [r2, #36]	@ 0x24
 8002036:	2600      	movs	r6, #0
 8002038:	89d7      	ldrh	r7, [r2, #14]
 800203a:	f81c 7007 	ldrb.w	r7, [ip, r7]
 800203e:	42b7      	cmp	r7, r6
 8002040:	d82d      	bhi.n	800209e <HAL_FDCAN_GetRxMessage+0x126>
 8002042:	2940      	cmp	r1, #64	@ 0x40
 8002044:	6802      	ldr	r2, [r0, #0]
 8002046:	d12f      	bne.n	80020a8 <HAL_FDCAN_GetRxMessage+0x130>
 8002048:	f8c2 50a8 	str.w	r5, [r2, #168]	@ 0xa8
 800204c:	2000      	movs	r0, #0
 800204e:	e7b1      	b.n	8001fb4 <HAL_FDCAN_GetRxMessage+0x3c>
 8002050:	2941      	cmp	r1, #65	@ 0x41
 8002052:	d117      	bne.n	8002084 <HAL_FDCAN_GetRxMessage+0x10c>
 8002054:	6804      	ldr	r4, [r0, #0]
 8002056:	f8d4 50b0 	ldr.w	r5, [r4, #176]	@ 0xb0
 800205a:	f415 0ffe 	tst.w	r5, #8323072	@ 0x7f0000
 800205e:	d099      	beq.n	8001f94 <HAL_FDCAN_GetRxMessage+0x1c>
 8002060:	f8d4 50b4 	ldr.w	r5, [r4, #180]	@ 0xb4
 8002064:	066e      	lsls	r6, r5, #25
 8002066:	d09e      	beq.n	8001fa6 <HAL_FDCAN_GetRxMessage+0x2e>
 8002068:	f8d4 50b4 	ldr.w	r5, [r4, #180]	@ 0xb4
 800206c:	01ed      	lsls	r5, r5, #7
 800206e:	d501      	bpl.n	8002074 <HAL_FDCAN_GetRxMessage+0xfc>
 8002070:	f8d4 50b0 	ldr.w	r5, [r4, #176]	@ 0xb0
 8002074:	f8d4 50b4 	ldr.w	r5, [r4, #180]	@ 0xb4
 8002078:	6cc4      	ldr	r4, [r0, #76]	@ 0x4c
 800207a:	f3c5 2505 	ubfx	r5, r5, #8, #6
 800207e:	6f86      	ldr	r6, [r0, #120]	@ 0x78
 8002080:	436c      	muls	r4, r5
 8002082:	e7a5      	b.n	8001fd0 <HAL_FDCAN_GetRxMessage+0x58>
 8002084:	6d04      	ldr	r4, [r0, #80]	@ 0x50
 8002086:	428c      	cmp	r4, r1
 8002088:	d984      	bls.n	8001f94 <HAL_FDCAN_GetRxMessage+0x1c>
 800208a:	6d44      	ldr	r4, [r0, #84]	@ 0x54
 800208c:	6fc5      	ldr	r5, [r0, #124]	@ 0x7c
 800208e:	434c      	muls	r4, r1
 8002090:	eb05 0484 	add.w	r4, r5, r4, lsl #2
 8002094:	2500      	movs	r5, #0
 8002096:	e79d      	b.n	8001fd4 <HAL_FDCAN_GetRxMessage+0x5c>
 8002098:	f026 4660 	bic.w	r6, r6, #3758096384	@ 0xe0000000
 800209c:	e7a3      	b.n	8001fe6 <HAL_FDCAN_GetRxMessage+0x6e>
 800209e:	f814 7f01 	ldrb.w	r7, [r4, #1]!
 80020a2:	559f      	strb	r7, [r3, r6]
 80020a4:	3601      	adds	r6, #1
 80020a6:	e7c7      	b.n	8002038 <HAL_FDCAN_GetRxMessage+0xc0>
 80020a8:	2941      	cmp	r1, #65	@ 0x41
 80020aa:	d102      	bne.n	80020b2 <HAL_FDCAN_GetRxMessage+0x13a>
 80020ac:	f8c2 50b8 	str.w	r5, [r2, #184]	@ 0xb8
 80020b0:	e7cc      	b.n	800204c <HAL_FDCAN_GetRxMessage+0xd4>
 80020b2:	291f      	cmp	r1, #31
 80020b4:	f04f 0301 	mov.w	r3, #1
 80020b8:	d803      	bhi.n	80020c2 <HAL_FDCAN_GetRxMessage+0x14a>
 80020ba:	408b      	lsls	r3, r1
 80020bc:	f8c2 3098 	str.w	r3, [r2, #152]	@ 0x98
 80020c0:	e7c4      	b.n	800204c <HAL_FDCAN_GetRxMessage+0xd4>
 80020c2:	f001 011f 	and.w	r1, r1, #31
 80020c6:	408b      	lsls	r3, r1
 80020c8:	f8c2 309c 	str.w	r3, [r2, #156]	@ 0x9c
 80020cc:	e7be      	b.n	800204c <HAL_FDCAN_GetRxMessage+0xd4>
 80020ce:	f8d0 309c 	ldr.w	r3, [r0, #156]	@ 0x9c
 80020d2:	f043 0308 	orr.w	r3, r3, #8
 80020d6:	e76a      	b.n	8001fae <HAL_FDCAN_GetRxMessage+0x36>
 80020d8:	08005088 	.word	0x08005088

080020dc <HAL_FDCAN_GetProtocolStatus>:
 80020dc:	6803      	ldr	r3, [r0, #0]
 80020de:	2000      	movs	r0, #0
 80020e0:	6c5b      	ldr	r3, [r3, #68]	@ 0x44
 80020e2:	f003 0207 	and.w	r2, r3, #7
 80020e6:	600a      	str	r2, [r1, #0]
 80020e8:	f3c3 2202 	ubfx	r2, r3, #8, #3
 80020ec:	604a      	str	r2, [r1, #4]
 80020ee:	f003 0218 	and.w	r2, r3, #24
 80020f2:	608a      	str	r2, [r1, #8]
 80020f4:	f3c3 1240 	ubfx	r2, r3, #5, #1
 80020f8:	60ca      	str	r2, [r1, #12]
 80020fa:	f3c3 1280 	ubfx	r2, r3, #6, #1
 80020fe:	610a      	str	r2, [r1, #16]
 8002100:	f3c3 12c0 	ubfx	r2, r3, #7, #1
 8002104:	614a      	str	r2, [r1, #20]
 8002106:	f3c3 22c0 	ubfx	r2, r3, #11, #1
 800210a:	618a      	str	r2, [r1, #24]
 800210c:	f3c3 3200 	ubfx	r2, r3, #12, #1
 8002110:	61ca      	str	r2, [r1, #28]
 8002112:	f3c3 3240 	ubfx	r2, r3, #13, #1
 8002116:	620a      	str	r2, [r1, #32]
 8002118:	f3c3 3280 	ubfx	r2, r3, #14, #1
 800211c:	f3c3 4306 	ubfx	r3, r3, #16, #7
 8002120:	624a      	str	r2, [r1, #36]	@ 0x24
 8002122:	628b      	str	r3, [r1, #40]	@ 0x28
 8002124:	4770      	bx	lr
	...

08002128 <HAL_FDCAN_ActivateNotification>:
 8002128:	f890 3098 	ldrb.w	r3, [r0, #152]	@ 0x98
 800212c:	3b01      	subs	r3, #1
 800212e:	2b01      	cmp	r3, #1
 8002130:	d82d      	bhi.n	800218e <HAL_FDCAN_ActivateNotification+0x66>
 8002132:	6803      	ldr	r3, [r0, #0]
 8002134:	6d98      	ldr	r0, [r3, #88]	@ 0x58
 8002136:	4208      	tst	r0, r1
 8002138:	d11f      	bne.n	800217a <HAL_FDCAN_ActivateNotification+0x52>
 800213a:	6dd8      	ldr	r0, [r3, #92]	@ 0x5c
 800213c:	f040 0001 	orr.w	r0, r0, #1
 8002140:	65d8      	str	r0, [r3, #92]	@ 0x5c
 8002142:	0588      	lsls	r0, r1, #22
 8002144:	d504      	bpl.n	8002150 <HAL_FDCAN_ActivateNotification+0x28>
 8002146:	f8d3 00e0 	ldr.w	r0, [r3, #224]	@ 0xe0
 800214a:	4310      	orrs	r0, r2
 800214c:	f8c3 00e0 	str.w	r0, [r3, #224]	@ 0xe0
 8002150:	0548      	lsls	r0, r1, #21
 8002152:	d504      	bpl.n	800215e <HAL_FDCAN_ActivateNotification+0x36>
 8002154:	f8d3 00e4 	ldr.w	r0, [r3, #228]	@ 0xe4
 8002158:	4302      	orrs	r2, r0
 800215a:	f8c3 20e4 	str.w	r2, [r3, #228]	@ 0xe4
 800215e:	f021 4240 	bic.w	r2, r1, #3221225472	@ 0xc0000000
 8002162:	6d58      	ldr	r0, [r3, #84]	@ 0x54
 8002164:	f422 1240 	bic.w	r2, r2, #3145728	@ 0x300000
 8002168:	4302      	orrs	r2, r0
 800216a:	2000      	movs	r0, #0
 800216c:	655a      	str	r2, [r3, #84]	@ 0x54
 800216e:	4a0c      	ldr	r2, [pc, #48]	@ (80021a0 <HAL_FDCAN_ActivateNotification+0x78>)
 8002170:	6953      	ldr	r3, [r2, #20]
 8002172:	ea43 7391 	orr.w	r3, r3, r1, lsr #30
 8002176:	6153      	str	r3, [r2, #20]
 8002178:	4770      	bx	lr
 800217a:	6d98      	ldr	r0, [r3, #88]	@ 0x58
 800217c:	ea31 0000 	bics.w	r0, r1, r0
 8002180:	d103      	bne.n	800218a <HAL_FDCAN_ActivateNotification+0x62>
 8002182:	6dd8      	ldr	r0, [r3, #92]	@ 0x5c
 8002184:	f040 0002 	orr.w	r0, r0, #2
 8002188:	e7da      	b.n	8002140 <HAL_FDCAN_ActivateNotification+0x18>
 800218a:	2003      	movs	r0, #3
 800218c:	e7d8      	b.n	8002140 <HAL_FDCAN_ActivateNotification+0x18>
 800218e:	f8d0 309c 	ldr.w	r3, [r0, #156]	@ 0x9c
 8002192:	f043 0302 	orr.w	r3, r3, #2
 8002196:	f8c0 309c 	str.w	r3, [r0, #156]	@ 0x9c
 800219a:	2001      	movs	r0, #1
 800219c:	4770      	bx	lr
 800219e:	bf00      	nop
 80021a0:	4000a800 	.word	0x4000a800

080021a4 <HAL_FDCAN_ClockCalibrationCallback>:
 80021a4:	4770      	bx	lr

080021a6 <HAL_FDCAN_TxEventFifoCallback>:
 80021a6:	4770      	bx	lr

080021a8 <HAL_FDCAN_RxFifo1Callback>:
 80021a8:	4770      	bx	lr

080021aa <HAL_FDCAN_TxFifoEmptyCallback>:
 80021aa:	4770      	bx	lr

080021ac <HAL_FDCAN_TxBufferCompleteCallback>:
 80021ac:	4770      	bx	lr

080021ae <HAL_FDCAN_TxBufferAbortCallback>:
 80021ae:	4770      	bx	lr

080021b0 <HAL_FDCAN_RxBufferNewMessageCallback>:
 80021b0:	4770      	bx	lr

080021b2 <HAL_FDCAN_TimestampWraparoundCallback>:
 80021b2:	4770      	bx	lr

080021b4 <HAL_FDCAN_TimeoutOccurredCallback>:
 80021b4:	4770      	bx	lr

080021b6 <HAL_FDCAN_HighPriorityMessageCallback>:
 80021b6:	4770      	bx	lr

080021b8 <HAL_FDCAN_ErrorCallback>:
 80021b8:	4770      	bx	lr

080021ba <HAL_FDCAN_ErrorStatusCallback>:
 80021ba:	4770      	bx	lr

080021bc <HAL_FDCAN_TT_ScheduleSyncCallback>:
 80021bc:	4770      	bx	lr

080021be <HAL_FDCAN_TT_TimeMarkCallback>:
 80021be:	4770      	bx	lr

080021c0 <HAL_FDCAN_TT_StopWatchCallback>:
 80021c0:	4770      	bx	lr

080021c2 <HAL_FDCAN_TT_GlobalTimeCallback>:
 80021c2:	4770      	bx	lr

080021c4 <HAL_FDCAN_IRQHandler>:
 80021c4:	4aa0      	ldr	r2, [pc, #640]	@ (8002448 <HAL_FDCAN_IRQHandler+0x284>)
 80021c6:	e92d 4ff8 	stmdb	sp!, {r3, r4, r5, r6, r7, r8, r9, sl, fp, lr}
 80021ca:	6911      	ldr	r1, [r2, #16]
 80021cc:	4604      	mov	r4, r0
 80021ce:	6953      	ldr	r3, [r2, #20]
 80021d0:	ea01 0a03 	and.w	sl, r1, r3
 80021d4:	6803      	ldr	r3, [r0, #0]
 80021d6:	6d19      	ldr	r1, [r3, #80]	@ 0x50
 80021d8:	ea4f 7b8a 	mov.w	fp, sl, lsl #30
 80021dc:	6d5d      	ldr	r5, [r3, #84]	@ 0x54
 80021de:	ea01 0905 	and.w	r9, r1, r5
 80021e2:	6d19      	ldr	r1, [r3, #80]	@ 0x50
 80021e4:	6d5d      	ldr	r5, [r3, #84]	@ 0x54
 80021e6:	6d1f      	ldr	r7, [r3, #80]	@ 0x50
 80021e8:	f409 4970 	and.w	r9, r9, #61440	@ 0xf000
 80021ec:	ea01 0805 	and.w	r8, r1, r5
 80021f0:	6d59      	ldr	r1, [r3, #84]	@ 0x54
 80021f2:	6d1d      	ldr	r5, [r3, #80]	@ 0x50
 80021f4:	400f      	ands	r7, r1
 80021f6:	6d59      	ldr	r1, [r3, #84]	@ 0x54
 80021f8:	6d1e      	ldr	r6, [r3, #80]	@ 0x50
 80021fa:	f008 080f 	and.w	r8, r8, #15
 80021fe:	400d      	ands	r5, r1
 8002200:	6d59      	ldr	r1, [r3, #84]	@ 0x54
 8002202:	f007 07f0 	and.w	r7, r7, #240	@ 0xf0
 8002206:	400e      	ands	r6, r1
 8002208:	6d59      	ldr	r1, [r3, #84]	@ 0x54
 800220a:	f005 5571 	and.w	r5, r5, #1010827264	@ 0x3c400000
 800220e:	05c9      	lsls	r1, r1, #23
 8002210:	f006 7660 	and.w	r6, r6, #58720256	@ 0x3800000
 8002214:	d509      	bpl.n	800222a <HAL_FDCAN_IRQHandler+0x66>
 8002216:	6d19      	ldr	r1, [r3, #80]	@ 0x50
 8002218:	05c9      	lsls	r1, r1, #23
 800221a:	d506      	bpl.n	800222a <HAL_FDCAN_IRQHandler+0x66>
 800221c:	f44f 7180 	mov.w	r1, #256	@ 0x100
 8002220:	6519      	str	r1, [r3, #80]	@ 0x50
 8002222:	2300      	movs	r3, #0
 8002224:	6113      	str	r3, [r2, #16]
 8002226:	f7ff ffc6 	bl	80021b6 <HAL_FDCAN_HighPriorityMessageCallback>
 800222a:	6823      	ldr	r3, [r4, #0]
 800222c:	6d5a      	ldr	r2, [r3, #84]	@ 0x54
 800222e:	0551      	lsls	r1, r2, #21
 8002230:	d510      	bpl.n	8002254 <HAL_FDCAN_IRQHandler+0x90>
 8002232:	6d1a      	ldr	r2, [r3, #80]	@ 0x50
 8002234:	0552      	lsls	r2, r2, #21
 8002236:	d50d      	bpl.n	8002254 <HAL_FDCAN_IRQHandler+0x90>
 8002238:	f44f 6080 	mov.w	r0, #1024	@ 0x400
 800223c:	f8d3 10dc 	ldr.w	r1, [r3, #220]	@ 0xdc
 8002240:	f8d3 20e4 	ldr.w	r2, [r3, #228]	@ 0xe4
 8002244:	6518      	str	r0, [r3, #80]	@ 0x50
 8002246:	2000      	movs	r0, #0
 8002248:	4b7f      	ldr	r3, [pc, #508]	@ (8002448 <HAL_FDCAN_IRQHandler+0x284>)
 800224a:	4011      	ands	r1, r2
 800224c:	6118      	str	r0, [r3, #16]
 800224e:	4620      	mov	r0, r4
 8002250:	f7ff ffad 	bl	80021ae <HAL_FDCAN_TxBufferAbortCallback>
 8002254:	f1bb 0f00 	cmp.w	fp, #0
 8002258:	d00a      	beq.n	8002270 <HAL_FDCAN_IRQHandler+0xac>
 800225a:	6823      	ldr	r3, [r4, #0]
 800225c:	2200      	movs	r2, #0
 800225e:	4659      	mov	r1, fp
 8002260:	4620      	mov	r0, r4
 8002262:	651a      	str	r2, [r3, #80]	@ 0x50
 8002264:	f00a 0303 	and.w	r3, sl, #3
 8002268:	4a77      	ldr	r2, [pc, #476]	@ (8002448 <HAL_FDCAN_IRQHandler+0x284>)
 800226a:	6113      	str	r3, [r2, #16]
 800226c:	f7ff ff9a 	bl	80021a4 <HAL_FDCAN_ClockCalibrationCallback>
 8002270:	f1b9 0f00 	cmp.w	r9, #0
 8002274:	d009      	beq.n	800228a <HAL_FDCAN_IRQHandler+0xc6>
 8002276:	6823      	ldr	r3, [r4, #0]
 8002278:	2200      	movs	r2, #0
 800227a:	4649      	mov	r1, r9
 800227c:	4620      	mov	r0, r4
 800227e:	f8c3 9050 	str.w	r9, [r3, #80]	@ 0x50
 8002282:	4b71      	ldr	r3, [pc, #452]	@ (8002448 <HAL_FDCAN_IRQHandler+0x284>)
 8002284:	611a      	str	r2, [r3, #16]
 8002286:	f7ff ff8e 	bl	80021a6 <HAL_FDCAN_TxEventFifoCallback>
 800228a:	f1b8 0f00 	cmp.w	r8, #0
 800228e:	d009      	beq.n	80022a4 <HAL_FDCAN_IRQHandler+0xe0>
 8002290:	6823      	ldr	r3, [r4, #0]
 8002292:	2200      	movs	r2, #0
 8002294:	4641      	mov	r1, r8
 8002296:	4620      	mov	r0, r4
 8002298:	f8c3 8050 	str.w	r8, [r3, #80]	@ 0x50
 800229c:	4b6a      	ldr	r3, [pc, #424]	@ (8002448 <HAL_FDCAN_IRQHandler+0x284>)
 800229e:	611a      	str	r2, [r3, #16]
 80022a0:	f7fe fba4 	bl	80009ec <HAL_FDCAN_RxFifo0Callback>
 80022a4:	b147      	cbz	r7, 80022b8 <HAL_FDCAN_IRQHandler+0xf4>
 80022a6:	6823      	ldr	r3, [r4, #0]
 80022a8:	2200      	movs	r2, #0
 80022aa:	4639      	mov	r1, r7
 80022ac:	4620      	mov	r0, r4
 80022ae:	651f      	str	r7, [r3, #80]	@ 0x50
 80022b0:	4b65      	ldr	r3, [pc, #404]	@ (8002448 <HAL_FDCAN_IRQHandler+0x284>)
 80022b2:	611a      	str	r2, [r3, #16]
 80022b4:	f7ff ff78 	bl	80021a8 <HAL_FDCAN_RxFifo1Callback>
 80022b8:	6823      	ldr	r3, [r4, #0]
 80022ba:	6d5a      	ldr	r2, [r3, #84]	@ 0x54
 80022bc:	0510      	lsls	r0, r2, #20
 80022be:	d50b      	bpl.n	80022d8 <HAL_FDCAN_IRQHandler+0x114>
 80022c0:	6d1a      	ldr	r2, [r3, #80]	@ 0x50
 80022c2:	0511      	lsls	r1, r2, #20
 80022c4:	d508      	bpl.n	80022d8 <HAL_FDCAN_IRQHandler+0x114>
 80022c6:	f44f 6200 	mov.w	r2, #2048	@ 0x800
 80022ca:	4620      	mov	r0, r4
 80022cc:	651a      	str	r2, [r3, #80]	@ 0x50
 80022ce:	2200      	movs	r2, #0
 80022d0:	4b5d      	ldr	r3, [pc, #372]	@ (8002448 <HAL_FDCAN_IRQHandler+0x284>)
 80022d2:	611a      	str	r2, [r3, #16]
 80022d4:	f7ff ff69 	bl	80021aa <HAL_FDCAN_TxFifoEmptyCallback>
 80022d8:	6823      	ldr	r3, [r4, #0]
 80022da:	6d5a      	ldr	r2, [r3, #84]	@ 0x54
 80022dc:	0592      	lsls	r2, r2, #22
 80022de:	d510      	bpl.n	8002302 <HAL_FDCAN_IRQHandler+0x13e>
 80022e0:	6d1a      	ldr	r2, [r3, #80]	@ 0x50
 80022e2:	0597      	lsls	r7, r2, #22
 80022e4:	d50d      	bpl.n	8002302 <HAL_FDCAN_IRQHandler+0x13e>
 80022e6:	f44f 7000 	mov.w	r0, #512	@ 0x200
 80022ea:	f8d3 10d8 	ldr.w	r1, [r3, #216]	@ 0xd8
 80022ee:	f8d3 20e0 	ldr.w	r2, [r3, #224]	@ 0xe0
 80022f2:	6518      	str	r0, [r3, #80]	@ 0x50
 80022f4:	2000      	movs	r0, #0
 80022f6:	4b54      	ldr	r3, [pc, #336]	@ (8002448 <HAL_FDCAN_IRQHandler+0x284>)
 80022f8:	4011      	ands	r1, r2
 80022fa:	6118      	str	r0, [r3, #16]
 80022fc:	4620      	mov	r0, r4
 80022fe:	f7ff ff55 	bl	80021ac <HAL_FDCAN_TxBufferCompleteCallback>
 8002302:	6823      	ldr	r3, [r4, #0]
 8002304:	6d5a      	ldr	r2, [r3, #84]	@ 0x54
 8002306:	0310      	lsls	r0, r2, #12
 8002308:	d50b      	bpl.n	8002322 <HAL_FDCAN_IRQHandler+0x15e>
 800230a:	6d1a      	ldr	r2, [r3, #80]	@ 0x50
 800230c:	0311      	lsls	r1, r2, #12
 800230e:	d508      	bpl.n	8002322 <HAL_FDCAN_IRQHandler+0x15e>
 8002310:	f44f 2200 	mov.w	r2, #524288	@ 0x80000
 8002314:	4620      	mov	r0, r4
 8002316:	651a      	str	r2, [r3, #80]	@ 0x50
 8002318:	2200      	movs	r2, #0
 800231a:	4b4b      	ldr	r3, [pc, #300]	@ (8002448 <HAL_FDCAN_IRQHandler+0x284>)
 800231c:	611a      	str	r2, [r3, #16]
 800231e:	f7ff ff47 	bl	80021b0 <HAL_FDCAN_RxBufferNewMessageCallback>
 8002322:	6823      	ldr	r3, [r4, #0]
 8002324:	6d5a      	ldr	r2, [r3, #84]	@ 0x54
 8002326:	03d2      	lsls	r2, r2, #15
 8002328:	d50b      	bpl.n	8002342 <HAL_FDCAN_IRQHandler+0x17e>
 800232a:	6d1a      	ldr	r2, [r3, #80]	@ 0x50
 800232c:	03d7      	lsls	r7, r2, #15
 800232e:	d508      	bpl.n	8002342 <HAL_FDCAN_IRQHandler+0x17e>
 8002330:	f44f 3280 	mov.w	r2, #65536	@ 0x10000
 8002334:	4620      	mov	r0, r4
 8002336:	651a      	str	r2, [r3, #80]	@ 0x50
 8002338:	2200      	movs	r2, #0
 800233a:	4b43      	ldr	r3, [pc, #268]	@ (8002448 <HAL_FDCAN_IRQHandler+0x284>)
 800233c:	611a      	str	r2, [r3, #16]
 800233e:	f7ff ff38 	bl	80021b2 <HAL_FDCAN_TimestampWraparoundCallback>
 8002342:	6823      	ldr	r3, [r4, #0]
 8002344:	6d5a      	ldr	r2, [r3, #84]	@ 0x54
 8002346:	0350      	lsls	r0, r2, #13
 8002348:	d50b      	bpl.n	8002362 <HAL_FDCAN_IRQHandler+0x19e>
 800234a:	6d1a      	ldr	r2, [r3, #80]	@ 0x50
 800234c:	0351      	lsls	r1, r2, #13
 800234e:	d508      	bpl.n	8002362 <HAL_FDCAN_IRQHandler+0x19e>
 8002350:	f44f 2280 	mov.w	r2, #262144	@ 0x40000
 8002354:	4620      	mov	r0, r4
 8002356:	651a      	str	r2, [r3, #80]	@ 0x50
 8002358:	2200      	movs	r2, #0
 800235a:	4b3b      	ldr	r3, [pc, #236]	@ (8002448 <HAL_FDCAN_IRQHandler+0x284>)
 800235c:	611a      	str	r2, [r3, #16]
 800235e:	f7ff ff29 	bl	80021b4 <HAL_FDCAN_TimeoutOccurredCallback>
 8002362:	6823      	ldr	r3, [r4, #0]
 8002364:	6d5a      	ldr	r2, [r3, #84]	@ 0x54
 8002366:	0392      	lsls	r2, r2, #14
 8002368:	d50e      	bpl.n	8002388 <HAL_FDCAN_IRQHandler+0x1c4>
 800236a:	6d1a      	ldr	r2, [r3, #80]	@ 0x50
 800236c:	0397      	lsls	r7, r2, #14
 800236e:	d50b      	bpl.n	8002388 <HAL_FDCAN_IRQHandler+0x1c4>
 8002370:	f44f 3200 	mov.w	r2, #131072	@ 0x20000
 8002374:	2100      	movs	r1, #0
 8002376:	651a      	str	r2, [r3, #80]	@ 0x50
 8002378:	4a33      	ldr	r2, [pc, #204]	@ (8002448 <HAL_FDCAN_IRQHandler+0x284>)
 800237a:	6111      	str	r1, [r2, #16]
 800237c:	f8d4 209c 	ldr.w	r2, [r4, #156]	@ 0x9c
 8002380:	f042 0280 	orr.w	r2, r2, #128	@ 0x80
 8002384:	f8c4 209c 	str.w	r2, [r4, #156]	@ 0x9c
 8002388:	b13e      	cbz	r6, 800239a <HAL_FDCAN_IRQHandler+0x1d6>
 800238a:	651e      	str	r6, [r3, #80]	@ 0x50
 800238c:	2200      	movs	r2, #0
 800238e:	4b2e      	ldr	r3, [pc, #184]	@ (8002448 <HAL_FDCAN_IRQHandler+0x284>)
 8002390:	4631      	mov	r1, r6
 8002392:	4620      	mov	r0, r4
 8002394:	611a      	str	r2, [r3, #16]
 8002396:	f7ff ff10 	bl	80021ba <HAL_FDCAN_ErrorStatusCallback>
 800239a:	6822      	ldr	r2, [r4, #0]
 800239c:	b145      	cbz	r5, 80023b0 <HAL_FDCAN_IRQHandler+0x1ec>
 800239e:	4b2a      	ldr	r3, [pc, #168]	@ (8002448 <HAL_FDCAN_IRQHandler+0x284>)
 80023a0:	2100      	movs	r1, #0
 80023a2:	6515      	str	r5, [r2, #80]	@ 0x50
 80023a4:	6119      	str	r1, [r3, #16]
 80023a6:	f8d4 309c 	ldr.w	r3, [r4, #156]	@ 0x9c
 80023aa:	432b      	orrs	r3, r5
 80023ac:	f8c4 309c 	str.w	r3, [r4, #156]	@ 0x9c
 80023b0:	4b26      	ldr	r3, [pc, #152]	@ (800244c <HAL_FDCAN_IRQHandler+0x288>)
 80023b2:	429a      	cmp	r2, r3
 80023b4:	d15c      	bne.n	8002470 <HAL_FDCAN_IRQHandler+0x2ac>
 80023b6:	6863      	ldr	r3, [r4, #4]
 80023b8:	689a      	ldr	r2, [r3, #8]
 80023ba:	0790      	lsls	r0, r2, #30
 80023bc:	d058      	beq.n	8002470 <HAL_FDCAN_IRQHandler+0x2ac>
 80023be:	6a19      	ldr	r1, [r3, #32]
 80023c0:	6a5a      	ldr	r2, [r3, #36]	@ 0x24
 80023c2:	4011      	ands	r1, r2
 80023c4:	6a1a      	ldr	r2, [r3, #32]
 80023c6:	6a58      	ldr	r0, [r3, #36]	@ 0x24
 80023c8:	6a1f      	ldr	r7, [r3, #32]
 80023ca:	f011 010f 	ands.w	r1, r1, #15
 80023ce:	ea02 0800 	and.w	r8, r2, r0
 80023d2:	6a5a      	ldr	r2, [r3, #36]	@ 0x24
 80023d4:	6a1e      	ldr	r6, [r3, #32]
 80023d6:	ea07 0702 	and.w	r7, r7, r2
 80023da:	6a5a      	ldr	r2, [r3, #36]	@ 0x24
 80023dc:	6a1d      	ldr	r5, [r3, #32]
 80023de:	f008 0830 	and.w	r8, r8, #48	@ 0x30
 80023e2:	ea06 0602 	and.w	r6, r6, r2
 80023e6:	6a5a      	ldr	r2, [r3, #36]	@ 0x24
 80023e8:	f407 77c0 	and.w	r7, r7, #384	@ 0x180
 80023ec:	ea05 0502 	and.w	r5, r5, r2
 80023f0:	f406 46fc 	and.w	r6, r6, #32256	@ 0x7e00
 80023f4:	f405 25f0 	and.w	r5, r5, #491520	@ 0x78000
 80023f8:	d003      	beq.n	8002402 <HAL_FDCAN_IRQHandler+0x23e>
 80023fa:	4620      	mov	r0, r4
 80023fc:	6219      	str	r1, [r3, #32]
 80023fe:	f7ff fedd 	bl	80021bc <HAL_FDCAN_TT_ScheduleSyncCallback>
 8002402:	f1b8 0f00 	cmp.w	r8, #0
 8002406:	d006      	beq.n	8002416 <HAL_FDCAN_IRQHandler+0x252>
 8002408:	6863      	ldr	r3, [r4, #4]
 800240a:	4641      	mov	r1, r8
 800240c:	4620      	mov	r0, r4
 800240e:	f8c3 8020 	str.w	r8, [r3, #32]
 8002412:	f7ff fed4 	bl	80021be <HAL_FDCAN_TT_TimeMarkCallback>
 8002416:	6863      	ldr	r3, [r4, #4]
 8002418:	6a5a      	ldr	r2, [r3, #36]	@ 0x24
 800241a:	0651      	lsls	r1, r2, #25
 800241c:	d50c      	bpl.n	8002438 <HAL_FDCAN_IRQHandler+0x274>
 800241e:	6a1a      	ldr	r2, [r3, #32]
 8002420:	0652      	lsls	r2, r2, #25
 8002422:	d509      	bpl.n	8002438 <HAL_FDCAN_IRQHandler+0x274>
 8002424:	6bd9      	ldr	r1, [r3, #60]	@ 0x3c
 8002426:	2040      	movs	r0, #64	@ 0x40
 8002428:	6bda      	ldr	r2, [r3, #60]	@ 0x3c
 800242a:	0c09      	lsrs	r1, r1, #16
 800242c:	6218      	str	r0, [r3, #32]
 800242e:	f002 023f 	and.w	r2, r2, #63	@ 0x3f
 8002432:	4620      	mov	r0, r4
 8002434:	f7ff fec4 	bl	80021c0 <HAL_FDCAN_TT_StopWatchCallback>
 8002438:	b157      	cbz	r7, 8002450 <HAL_FDCAN_IRQHandler+0x28c>
 800243a:	6863      	ldr	r3, [r4, #4]
 800243c:	4639      	mov	r1, r7
 800243e:	4620      	mov	r0, r4
 8002440:	621f      	str	r7, [r3, #32]
 8002442:	f7ff febe 	bl	80021c2 <HAL_FDCAN_TT_GlobalTimeCallback>
 8002446:	e003      	b.n	8002450 <HAL_FDCAN_IRQHandler+0x28c>
 8002448:	4000a800 	.word	0x4000a800
 800244c:	4000a000 	.word	0x4000a000
 8002450:	b136      	cbz	r6, 8002460 <HAL_FDCAN_IRQHandler+0x29c>
 8002452:	6863      	ldr	r3, [r4, #4]
 8002454:	621e      	str	r6, [r3, #32]
 8002456:	f8d4 309c 	ldr.w	r3, [r4, #156]	@ 0x9c
 800245a:	4333      	orrs	r3, r6
 800245c:	f8c4 309c 	str.w	r3, [r4, #156]	@ 0x9c
 8002460:	b135      	cbz	r5, 8002470 <HAL_FDCAN_IRQHandler+0x2ac>
 8002462:	6863      	ldr	r3, [r4, #4]
 8002464:	621d      	str	r5, [r3, #32]
 8002466:	f8d4 309c 	ldr.w	r3, [r4, #156]	@ 0x9c
 800246a:	432b      	orrs	r3, r5
 800246c:	f8c4 309c 	str.w	r3, [r4, #156]	@ 0x9c
 8002470:	f8d4 309c 	ldr.w	r3, [r4, #156]	@ 0x9c
 8002474:	b113      	cbz	r3, 800247c <HAL_FDCAN_IRQHandler+0x2b8>
 8002476:	4620      	mov	r0, r4
 8002478:	f7ff fe9e 	bl	80021b8 <HAL_FDCAN_ErrorCallback>
 800247c:	e8bd 8ff8 	ldmia.w	sp!, {r3, r4, r5, r6, r7, r8, r9, sl, fp, pc}

08002480 <HAL_GPIO_Init>:
 8002480:	e92d 4ff7 	stmdb	sp!, {r0, r1, r2, r4, r5, r6, r7, r8, r9, sl, fp, lr}
 8002484:	2300      	movs	r3, #0
 8002486:	f8df e1b8 	ldr.w	lr, [pc, #440]	@ 8002640 <HAL_GPIO_Init+0x1c0>
 800248a:	f04f 090f 	mov.w	r9, #15
 800248e:	f04f 44b0 	mov.w	r4, #1476395008	@ 0x58000000
 8002492:	680a      	ldr	r2, [r1, #0]
 8002494:	fa32 f503 	lsrs.w	r5, r2, r3
 8002498:	d102      	bne.n	80024a0 <HAL_GPIO_Init+0x20>
 800249a:	b003      	add	sp, #12
 800249c:	e8bd 8ff0 	ldmia.w	sp!, {r4, r5, r6, r7, r8, r9, sl, fp, pc}
 80024a0:	2501      	movs	r5, #1
 80024a2:	fa05 f803 	lsl.w	r8, r5, r3
 80024a6:	ea18 0202 	ands.w	r2, r8, r2
 80024aa:	f000 80b3 	beq.w	8002614 <HAL_GPIO_Init+0x194>
 80024ae:	684d      	ldr	r5, [r1, #4]
 80024b0:	ea4f 0c43 	mov.w	ip, r3, lsl #1
 80024b4:	2603      	movs	r6, #3
 80024b6:	f025 0a10 	bic.w	sl, r5, #16
 80024ba:	fa06 f60c 	lsl.w	r6, r6, ip
 80024be:	f10a 37ff 	add.w	r7, sl, #4294967295
 80024c2:	43f6      	mvns	r6, r6
 80024c4:	2f01      	cmp	r7, #1
 80024c6:	d810      	bhi.n	80024ea <HAL_GPIO_Init+0x6a>
 80024c8:	6887      	ldr	r7, [r0, #8]
 80024ca:	ea07 0b06 	and.w	fp, r7, r6
 80024ce:	68cf      	ldr	r7, [r1, #12]
 80024d0:	fa07 f70c 	lsl.w	r7, r7, ip
 80024d4:	ea47 070b 	orr.w	r7, r7, fp
 80024d8:	6087      	str	r7, [r0, #8]
 80024da:	6847      	ldr	r7, [r0, #4]
 80024dc:	ea27 0808 	bic.w	r8, r7, r8
 80024e0:	092f      	lsrs	r7, r5, #4
 80024e2:	409f      	lsls	r7, r3
 80024e4:	ea47 0708 	orr.w	r7, r7, r8
 80024e8:	6047      	str	r7, [r0, #4]
 80024ea:	68c7      	ldr	r7, [r0, #12]
 80024ec:	f1ba 0f02 	cmp.w	sl, #2
 80024f0:	ea07 0806 	and.w	r8, r7, r6
 80024f4:	688f      	ldr	r7, [r1, #8]
 80024f6:	fa07 f70c 	lsl.w	r7, r7, ip
 80024fa:	ea47 0708 	orr.w	r7, r7, r8
 80024fe:	60c7      	str	r7, [r0, #12]
 8002500:	d114      	bne.n	800252c <HAL_GPIO_Init+0xac>
 8002502:	ea4f 08d3 	mov.w	r8, r3, lsr #3
 8002506:	f003 0a07 	and.w	sl, r3, #7
 800250a:	eb00 0888 	add.w	r8, r0, r8, lsl #2
 800250e:	ea4f 0a8a 	mov.w	sl, sl, lsl #2
 8002512:	f8d8 7020 	ldr.w	r7, [r8, #32]
 8002516:	fa09 fb0a 	lsl.w	fp, r9, sl
 800251a:	ea27 0b0b 	bic.w	fp, r7, fp
 800251e:	690f      	ldr	r7, [r1, #16]
 8002520:	fa07 f70a 	lsl.w	r7, r7, sl
 8002524:	ea47 070b 	orr.w	r7, r7, fp
 8002528:	f8c8 7020 	str.w	r7, [r8, #32]
 800252c:	6807      	ldr	r7, [r0, #0]
 800252e:	4037      	ands	r7, r6
 8002530:	f005 0603 	and.w	r6, r5, #3
 8002534:	fa06 f60c 	lsl.w	r6, r6, ip
 8002538:	433e      	orrs	r6, r7
 800253a:	6006      	str	r6, [r0, #0]
 800253c:	00ee      	lsls	r6, r5, #3
 800253e:	d569      	bpl.n	8002614 <HAL_GPIO_Init+0x194>
 8002540:	f8de 60f4 	ldr.w	r6, [lr, #244]	@ 0xf4
 8002544:	f023 0703 	bic.w	r7, r3, #3
 8002548:	f003 0c03 	and.w	ip, r3, #3
 800254c:	f046 0602 	orr.w	r6, r6, #2
 8002550:	f107 47b0 	add.w	r7, r7, #1476395008	@ 0x58000000
 8002554:	ea4f 0c8c 	mov.w	ip, ip, lsl #2
 8002558:	f8ce 60f4 	str.w	r6, [lr, #244]	@ 0xf4
 800255c:	f507 6780 	add.w	r7, r7, #1024	@ 0x400
 8002560:	f8de 60f4 	ldr.w	r6, [lr, #244]	@ 0xf4
 8002564:	fa09 f80c 	lsl.w	r8, r9, ip
 8002568:	f006 0602 	and.w	r6, r6, #2
 800256c:	9601      	str	r6, [sp, #4]
 800256e:	9e01      	ldr	r6, [sp, #4]
 8002570:	68be      	ldr	r6, [r7, #8]
 8002572:	ea26 0808 	bic.w	r8, r6, r8
 8002576:	4e31      	ldr	r6, [pc, #196]	@ (800263c <HAL_GPIO_Init+0x1bc>)
 8002578:	42b0      	cmp	r0, r6
 800257a:	d04d      	beq.n	8002618 <HAL_GPIO_Init+0x198>
 800257c:	f506 6680 	add.w	r6, r6, #1024	@ 0x400
 8002580:	42b0      	cmp	r0, r6
 8002582:	d04b      	beq.n	800261c <HAL_GPIO_Init+0x19c>
 8002584:	f506 6680 	add.w	r6, r6, #1024	@ 0x400
 8002588:	42b0      	cmp	r0, r6
 800258a:	d049      	beq.n	8002620 <HAL_GPIO_Init+0x1a0>
 800258c:	f506 6680 	add.w	r6, r6, #1024	@ 0x400
 8002590:	42b0      	cmp	r0, r6
 8002592:	d047      	beq.n	8002624 <HAL_GPIO_Init+0x1a4>
 8002594:	f506 6680 	add.w	r6, r6, #1024	@ 0x400
 8002598:	42b0      	cmp	r0, r6
 800259a:	d045      	beq.n	8002628 <HAL_GPIO_Init+0x1a8>
 800259c:	f506 6680 	add.w	r6, r6, #1024	@ 0x400
 80025a0:	42b0      	cmp	r0, r6
 80025a2:	d043      	beq.n	800262c <HAL_GPIO_Init+0x1ac>
 80025a4:	f506 6680 	add.w	r6, r6, #1024	@ 0x400
 80025a8:	42b0      	cmp	r0, r6
 80025aa:	d041      	beq.n	8002630 <HAL_GPIO_Init+0x1b0>
 80025ac:	f506 6680 	add.w	r6, r6, #1024	@ 0x400
 80025b0:	42b0      	cmp	r0, r6
 80025b2:	d03f      	beq.n	8002634 <HAL_GPIO_Init+0x1b4>
 80025b4:	f506 6680 	add.w	r6, r6, #1024	@ 0x400
 80025b8:	42b0      	cmp	r0, r6
 80025ba:	d03d      	beq.n	8002638 <HAL_GPIO_Init+0x1b8>
 80025bc:	f506 6680 	add.w	r6, r6, #1024	@ 0x400
 80025c0:	42b0      	cmp	r0, r6
 80025c2:	bf14      	ite	ne
 80025c4:	260a      	movne	r6, #10
 80025c6:	2609      	moveq	r6, #9
 80025c8:	fa06 f60c 	lsl.w	r6, r6, ip
 80025cc:	f415 3f80 	tst.w	r5, #65536	@ 0x10000
 80025d0:	ea46 0608 	orr.w	r6, r6, r8
 80025d4:	60be      	str	r6, [r7, #8]
 80025d6:	ea6f 0702 	mvn.w	r7, r2
 80025da:	f8d4 6080 	ldr.w	r6, [r4, #128]	@ 0x80
 80025de:	bf0c      	ite	eq
 80025e0:	403e      	andeq	r6, r7
 80025e2:	4316      	orrne	r6, r2
 80025e4:	f415 3f00 	tst.w	r5, #131072	@ 0x20000
 80025e8:	f8c4 6080 	str.w	r6, [r4, #128]	@ 0x80
 80025ec:	f8d4 6084 	ldr.w	r6, [r4, #132]	@ 0x84
 80025f0:	bf0c      	ite	eq
 80025f2:	403e      	andeq	r6, r7
 80025f4:	4316      	orrne	r6, r2
 80025f6:	f415 1f80 	tst.w	r5, #1048576	@ 0x100000
 80025fa:	f8c4 6084 	str.w	r6, [r4, #132]	@ 0x84
 80025fe:	6826      	ldr	r6, [r4, #0]
 8002600:	bf0c      	ite	eq
 8002602:	403e      	andeq	r6, r7
 8002604:	4316      	orrne	r6, r2
 8002606:	02ad      	lsls	r5, r5, #10
 8002608:	6026      	str	r6, [r4, #0]
 800260a:	6866      	ldr	r6, [r4, #4]
 800260c:	bf54      	ite	pl
 800260e:	403e      	andpl	r6, r7
 8002610:	4316      	orrmi	r6, r2
 8002612:	6066      	str	r6, [r4, #4]
 8002614:	3301      	adds	r3, #1
 8002616:	e73c      	b.n	8002492 <HAL_GPIO_Init+0x12>
 8002618:	2600      	movs	r6, #0
 800261a:	e7d5      	b.n	80025c8 <HAL_GPIO_Init+0x148>
 800261c:	2601      	movs	r6, #1
 800261e:	e7d3      	b.n	80025c8 <HAL_GPIO_Init+0x148>
 8002620:	2602      	movs	r6, #2
 8002622:	e7d1      	b.n	80025c8 <HAL_GPIO_Init+0x148>
 8002624:	2603      	movs	r6, #3
 8002626:	e7cf      	b.n	80025c8 <HAL_GPIO_Init+0x148>
 8002628:	2604      	movs	r6, #4
 800262a:	e7cd      	b.n	80025c8 <HAL_GPIO_Init+0x148>
 800262c:	2605      	movs	r6, #5
 800262e:	e7cb      	b.n	80025c8 <HAL_GPIO_Init+0x148>
 8002630:	2606      	movs	r6, #6
 8002632:	e7c9      	b.n	80025c8 <HAL_GPIO_Init+0x148>
 8002634:	2607      	movs	r6, #7
 8002636:	e7c7      	b.n	80025c8 <HAL_GPIO_Init+0x148>
 8002638:	2608      	movs	r6, #8
 800263a:	e7c5      	b.n	80025c8 <HAL_GPIO_Init+0x148>
 800263c:	58020000 	.word	0x58020000
 8002640:	58024400 	.word	0x58024400

08002644 <HAL_GPIO_ReadPin>:
 8002644:	6903      	ldr	r3, [r0, #16]
 8002646:	4219      	tst	r1, r3
 8002648:	bf14      	ite	ne
 800264a:	2001      	movne	r0, #1
 800264c:	2000      	moveq	r0, #0
 800264e:	4770      	bx	lr

08002650 <HAL_GPIO_WritePin>:
 8002650:	b10a      	cbz	r2, 8002656 <HAL_GPIO_WritePin+0x6>
 8002652:	6181      	str	r1, [r0, #24]
 8002654:	4770      	bx	lr
 8002656:	0409      	lsls	r1, r1, #16
 8002658:	e7fb      	b.n	8002652 <HAL_GPIO_WritePin+0x2>

0800265a <HAL_GPIO_TogglePin>:
 800265a:	6943      	ldr	r3, [r0, #20]
 800265c:	ea31 0303 	bics.w	r3, r1, r3
 8002660:	bf08      	it	eq
 8002662:	0409      	lsleq	r1, r1, #16
 8002664:	6181      	str	r1, [r0, #24]
 8002666:	4770      	bx	lr

08002668 <HAL_PWREx_ConfigSupply>:
 8002668:	b538      	push	{r3, r4, r5, lr}
 800266a:	4c10      	ldr	r4, [pc, #64]	@ (80026ac <HAL_PWREx_ConfigSupply+0x44>)
 800266c:	68e3      	ldr	r3, [r4, #12]
 800266e:	f013 0f04 	tst.w	r3, #4
 8002672:	68e3      	ldr	r3, [r4, #12]
 8002674:	d105      	bne.n	8002682 <HAL_PWREx_ConfigSupply+0x1a>
 8002676:	f003 0307 	and.w	r3, r3, #7
 800267a:	1a18      	subs	r0, r3, r0
 800267c:	bf18      	it	ne
 800267e:	2001      	movne	r0, #1
 8002680:	bd38      	pop	{r3, r4, r5, pc}
 8002682:	f023 0307 	bic.w	r3, r3, #7
 8002686:	4318      	orrs	r0, r3
 8002688:	60e0      	str	r0, [r4, #12]
 800268a:	f7ff f899 	bl	80017c0 <HAL_GetTick>
 800268e:	4605      	mov	r5, r0
 8002690:	6863      	ldr	r3, [r4, #4]
 8002692:	049b      	lsls	r3, r3, #18
 8002694:	d501      	bpl.n	800269a <HAL_PWREx_ConfigSupply+0x32>
 8002696:	2000      	movs	r0, #0
 8002698:	e7f2      	b.n	8002680 <HAL_PWREx_ConfigSupply+0x18>
 800269a:	f7ff f891 	bl	80017c0 <HAL_GetTick>
 800269e:	1b40      	subs	r0, r0, r5
 80026a0:	f5b0 7f7a 	cmp.w	r0, #1000	@ 0x3e8
 80026a4:	d9f4      	bls.n	8002690 <HAL_PWREx_ConfigSupply+0x28>
 80026a6:	2001      	movs	r0, #1
 80026a8:	e7ea      	b.n	8002680 <HAL_PWREx_ConfigSupply+0x18>
 80026aa:	bf00      	nop
 80026ac:	58024800 	.word	0x58024800

080026b0 <HAL_RCC_OscConfig>:
 80026b0:	b5f8      	push	{r3, r4, r5, r6, r7, lr}
 80026b2:	4604      	mov	r4, r0
 80026b4:	2800      	cmp	r0, #0
 80026b6:	d074      	beq.n	80027a2 <HAL_RCC_OscConfig+0xf2>
 80026b8:	6803      	ldr	r3, [r0, #0]
 80026ba:	07d8      	lsls	r0, r3, #31
 80026bc:	d45e      	bmi.n	800277c <HAL_RCC_OscConfig+0xcc>
 80026be:	6823      	ldr	r3, [r4, #0]
 80026c0:	0799      	lsls	r1, r3, #30
 80026c2:	f100 80ad 	bmi.w	8002820 <HAL_RCC_OscConfig+0x170>
 80026c6:	6823      	ldr	r3, [r4, #0]
 80026c8:	06da      	lsls	r2, r3, #27
 80026ca:	d527      	bpl.n	800271c <HAL_RCC_OscConfig+0x6c>
 80026cc:	4a9f      	ldr	r2, [pc, #636]	@ (800294c <HAL_RCC_OscConfig+0x29c>)
 80026ce:	6913      	ldr	r3, [r2, #16]
 80026d0:	6a91      	ldr	r1, [r2, #40]	@ 0x28
 80026d2:	f003 0338 	and.w	r3, r3, #56	@ 0x38
 80026d6:	2b08      	cmp	r3, #8
 80026d8:	d007      	beq.n	80026ea <HAL_RCC_OscConfig+0x3a>
 80026da:	2b18      	cmp	r3, #24
 80026dc:	f040 810a 	bne.w	80028f4 <HAL_RCC_OscConfig+0x244>
 80026e0:	f001 0303 	and.w	r3, r1, #3
 80026e4:	2b01      	cmp	r3, #1
 80026e6:	f040 8105 	bne.w	80028f4 <HAL_RCC_OscConfig+0x244>
 80026ea:	6813      	ldr	r3, [r2, #0]
 80026ec:	05db      	lsls	r3, r3, #23
 80026ee:	d502      	bpl.n	80026f6 <HAL_RCC_OscConfig+0x46>
 80026f0:	69e3      	ldr	r3, [r4, #28]
 80026f2:	2b80      	cmp	r3, #128	@ 0x80
 80026f4:	d155      	bne.n	80027a2 <HAL_RCC_OscConfig+0xf2>
 80026f6:	f7ff f87b 	bl	80017f0 <HAL_GetREVID>
 80026fa:	f241 0303 	movw	r3, #4099	@ 0x1003
 80026fe:	6a21      	ldr	r1, [r4, #32]
 8002700:	4298      	cmp	r0, r3
 8002702:	4b92      	ldr	r3, [pc, #584]	@ (800294c <HAL_RCC_OscConfig+0x29c>)
 8002704:	f200 80ef 	bhi.w	80028e6 <HAL_RCC_OscConfig+0x236>
 8002708:	685a      	ldr	r2, [r3, #4]
 800270a:	2920      	cmp	r1, #32
 800270c:	f022 42f8 	bic.w	r2, r2, #2080374784	@ 0x7c000000
 8002710:	bf0c      	ite	eq
 8002712:	f042 4280 	orreq.w	r2, r2, #1073741824	@ 0x40000000
 8002716:	ea42 6281 	orrne.w	r2, r2, r1, lsl #26
 800271a:	605a      	str	r2, [r3, #4]
 800271c:	6823      	ldr	r3, [r4, #0]
 800271e:	0719      	lsls	r1, r3, #28
 8002720:	f100 8129 	bmi.w	8002976 <HAL_RCC_OscConfig+0x2c6>
 8002724:	6823      	ldr	r3, [r4, #0]
 8002726:	069a      	lsls	r2, r3, #26
 8002728:	f100 814a 	bmi.w	80029c0 <HAL_RCC_OscConfig+0x310>
 800272c:	6823      	ldr	r3, [r4, #0]
 800272e:	075d      	lsls	r5, r3, #29
 8002730:	d51e      	bpl.n	8002770 <HAL_RCC_OscConfig+0xc0>
 8002732:	4d87      	ldr	r5, [pc, #540]	@ (8002950 <HAL_RCC_OscConfig+0x2a0>)
 8002734:	682b      	ldr	r3, [r5, #0]
 8002736:	f443 7380 	orr.w	r3, r3, #256	@ 0x100
 800273a:	602b      	str	r3, [r5, #0]
 800273c:	f7ff f840 	bl	80017c0 <HAL_GetTick>
 8002740:	4606      	mov	r6, r0
 8002742:	682b      	ldr	r3, [r5, #0]
 8002744:	05da      	lsls	r2, r3, #23
 8002746:	f140 8160 	bpl.w	8002a0a <HAL_RCC_OscConfig+0x35a>
 800274a:	68a3      	ldr	r3, [r4, #8]
 800274c:	4d7f      	ldr	r5, [pc, #508]	@ (800294c <HAL_RCC_OscConfig+0x29c>)
 800274e:	2b01      	cmp	r3, #1
 8002750:	f040 8162 	bne.w	8002a18 <HAL_RCC_OscConfig+0x368>
 8002754:	6f2b      	ldr	r3, [r5, #112]	@ 0x70
 8002756:	f043 0301 	orr.w	r3, r3, #1
 800275a:	672b      	str	r3, [r5, #112]	@ 0x70
 800275c:	f241 3788 	movw	r7, #5000	@ 0x1388
 8002760:	f7ff f82e 	bl	80017c0 <HAL_GetTick>
 8002764:	4e79      	ldr	r6, [pc, #484]	@ (800294c <HAL_RCC_OscConfig+0x29c>)
 8002766:	4605      	mov	r5, r0
 8002768:	6f33      	ldr	r3, [r6, #112]	@ 0x70
 800276a:	079b      	lsls	r3, r3, #30
 800276c:	f140 817a 	bpl.w	8002a64 <HAL_RCC_OscConfig+0x3b4>
 8002770:	6a62      	ldr	r2, [r4, #36]	@ 0x24
 8002772:	2a00      	cmp	r2, #0
 8002774:	f040 817d 	bne.w	8002a72 <HAL_RCC_OscConfig+0x3c2>
 8002778:	2000      	movs	r0, #0
 800277a:	e02b      	b.n	80027d4 <HAL_RCC_OscConfig+0x124>
 800277c:	4a73      	ldr	r2, [pc, #460]	@ (800294c <HAL_RCC_OscConfig+0x29c>)
 800277e:	6913      	ldr	r3, [r2, #16]
 8002780:	6a91      	ldr	r1, [r2, #40]	@ 0x28
 8002782:	f003 0338 	and.w	r3, r3, #56	@ 0x38
 8002786:	2b10      	cmp	r3, #16
 8002788:	d005      	beq.n	8002796 <HAL_RCC_OscConfig+0xe6>
 800278a:	2b18      	cmp	r3, #24
 800278c:	d10b      	bne.n	80027a6 <HAL_RCC_OscConfig+0xf6>
 800278e:	f001 0303 	and.w	r3, r1, #3
 8002792:	2b02      	cmp	r3, #2
 8002794:	d107      	bne.n	80027a6 <HAL_RCC_OscConfig+0xf6>
 8002796:	6813      	ldr	r3, [r2, #0]
 8002798:	039a      	lsls	r2, r3, #14
 800279a:	d590      	bpl.n	80026be <HAL_RCC_OscConfig+0xe>
 800279c:	6863      	ldr	r3, [r4, #4]
 800279e:	2b00      	cmp	r3, #0
 80027a0:	d18d      	bne.n	80026be <HAL_RCC_OscConfig+0xe>
 80027a2:	2001      	movs	r0, #1
 80027a4:	e016      	b.n	80027d4 <HAL_RCC_OscConfig+0x124>
 80027a6:	6863      	ldr	r3, [r4, #4]
 80027a8:	4d68      	ldr	r5, [pc, #416]	@ (800294c <HAL_RCC_OscConfig+0x29c>)
 80027aa:	f5b3 3f80 	cmp.w	r3, #65536	@ 0x10000
 80027ae:	d112      	bne.n	80027d6 <HAL_RCC_OscConfig+0x126>
 80027b0:	682b      	ldr	r3, [r5, #0]
 80027b2:	f443 3380 	orr.w	r3, r3, #65536	@ 0x10000
 80027b6:	602b      	str	r3, [r5, #0]
 80027b8:	f7ff f802 	bl	80017c0 <HAL_GetTick>
 80027bc:	4e63      	ldr	r6, [pc, #396]	@ (800294c <HAL_RCC_OscConfig+0x29c>)
 80027be:	4605      	mov	r5, r0
 80027c0:	6833      	ldr	r3, [r6, #0]
 80027c2:	039b      	lsls	r3, r3, #14
 80027c4:	f53f af7b 	bmi.w	80026be <HAL_RCC_OscConfig+0xe>
 80027c8:	f7fe fffa 	bl	80017c0 <HAL_GetTick>
 80027cc:	1b40      	subs	r0, r0, r5
 80027ce:	2864      	cmp	r0, #100	@ 0x64
 80027d0:	d9f6      	bls.n	80027c0 <HAL_RCC_OscConfig+0x110>
 80027d2:	2003      	movs	r0, #3
 80027d4:	bdf8      	pop	{r3, r4, r5, r6, r7, pc}
 80027d6:	b9a3      	cbnz	r3, 8002802 <HAL_RCC_OscConfig+0x152>
 80027d8:	682b      	ldr	r3, [r5, #0]
 80027da:	f423 3380 	bic.w	r3, r3, #65536	@ 0x10000
 80027de:	602b      	str	r3, [r5, #0]
 80027e0:	682b      	ldr	r3, [r5, #0]
 80027e2:	f423 2380 	bic.w	r3, r3, #262144	@ 0x40000
 80027e6:	602b      	str	r3, [r5, #0]
 80027e8:	f7fe ffea 	bl	80017c0 <HAL_GetTick>
 80027ec:	4606      	mov	r6, r0
 80027ee:	682b      	ldr	r3, [r5, #0]
 80027f0:	039f      	lsls	r7, r3, #14
 80027f2:	f57f af64 	bpl.w	80026be <HAL_RCC_OscConfig+0xe>
 80027f6:	f7fe ffe3 	bl	80017c0 <HAL_GetTick>
 80027fa:	1b80      	subs	r0, r0, r6
 80027fc:	2864      	cmp	r0, #100	@ 0x64
 80027fe:	d9f6      	bls.n	80027ee <HAL_RCC_OscConfig+0x13e>
 8002800:	e7e7      	b.n	80027d2 <HAL_RCC_OscConfig+0x122>
 8002802:	f5b3 2fa0 	cmp.w	r3, #327680	@ 0x50000
 8002806:	682b      	ldr	r3, [r5, #0]
 8002808:	d103      	bne.n	8002812 <HAL_RCC_OscConfig+0x162>
 800280a:	f443 2380 	orr.w	r3, r3, #262144	@ 0x40000
 800280e:	602b      	str	r3, [r5, #0]
 8002810:	e7ce      	b.n	80027b0 <HAL_RCC_OscConfig+0x100>
 8002812:	f423 3380 	bic.w	r3, r3, #65536	@ 0x10000
 8002816:	602b      	str	r3, [r5, #0]
 8002818:	682b      	ldr	r3, [r5, #0]
 800281a:	f423 2380 	bic.w	r3, r3, #262144	@ 0x40000
 800281e:	e7ca      	b.n	80027b6 <HAL_RCC_OscConfig+0x106>
 8002820:	4a4a      	ldr	r2, [pc, #296]	@ (800294c <HAL_RCC_OscConfig+0x29c>)
 8002822:	6913      	ldr	r3, [r2, #16]
 8002824:	6a91      	ldr	r1, [r2, #40]	@ 0x28
 8002826:	f013 0338 	ands.w	r3, r3, #56	@ 0x38
 800282a:	d003      	beq.n	8002834 <HAL_RCC_OscConfig+0x184>
 800282c:	2b18      	cmp	r3, #24
 800282e:	d11f      	bne.n	8002870 <HAL_RCC_OscConfig+0x1c0>
 8002830:	078e      	lsls	r6, r1, #30
 8002832:	d11d      	bne.n	8002870 <HAL_RCC_OscConfig+0x1c0>
 8002834:	6813      	ldr	r3, [r2, #0]
 8002836:	075d      	lsls	r5, r3, #29
 8002838:	d502      	bpl.n	8002840 <HAL_RCC_OscConfig+0x190>
 800283a:	68e3      	ldr	r3, [r4, #12]
 800283c:	2b00      	cmp	r3, #0
 800283e:	d0b0      	beq.n	80027a2 <HAL_RCC_OscConfig+0xf2>
 8002840:	f7fe ffd6 	bl	80017f0 <HAL_GetREVID>
 8002844:	f241 0303 	movw	r3, #4099	@ 0x1003
 8002848:	6921      	ldr	r1, [r4, #16]
 800284a:	4298      	cmp	r0, r3
 800284c:	4b3f      	ldr	r3, [pc, #252]	@ (800294c <HAL_RCC_OscConfig+0x29c>)
 800284e:	685a      	ldr	r2, [r3, #4]
 8002850:	d809      	bhi.n	8002866 <HAL_RCC_OscConfig+0x1b6>
 8002852:	f422 327c 	bic.w	r2, r2, #258048	@ 0x3f000
 8002856:	2940      	cmp	r1, #64	@ 0x40
 8002858:	bf0c      	ite	eq
 800285a:	f442 3200 	orreq.w	r2, r2, #131072	@ 0x20000
 800285e:	ea42 3201 	orrne.w	r2, r2, r1, lsl #12
 8002862:	605a      	str	r2, [r3, #4]
 8002864:	e72f      	b.n	80026c6 <HAL_RCC_OscConfig+0x16>
 8002866:	f022 42fe 	bic.w	r2, r2, #2130706432	@ 0x7f000000
 800286a:	ea42 6201 	orr.w	r2, r2, r1, lsl #24
 800286e:	e7f8      	b.n	8002862 <HAL_RCC_OscConfig+0x1b2>
 8002870:	4d36      	ldr	r5, [pc, #216]	@ (800294c <HAL_RCC_OscConfig+0x29c>)
 8002872:	68e2      	ldr	r2, [r4, #12]
 8002874:	682b      	ldr	r3, [r5, #0]
 8002876:	b332      	cbz	r2, 80028c6 <HAL_RCC_OscConfig+0x216>
 8002878:	f023 0319 	bic.w	r3, r3, #25
 800287c:	4313      	orrs	r3, r2
 800287e:	602b      	str	r3, [r5, #0]
 8002880:	f7fe ff9e 	bl	80017c0 <HAL_GetTick>
 8002884:	4606      	mov	r6, r0
 8002886:	682b      	ldr	r3, [r5, #0]
 8002888:	0758      	lsls	r0, r3, #29
 800288a:	d511      	bpl.n	80028b0 <HAL_RCC_OscConfig+0x200>
 800288c:	f7fe ffb0 	bl	80017f0 <HAL_GetREVID>
 8002890:	f241 0303 	movw	r3, #4099	@ 0x1003
 8002894:	6922      	ldr	r2, [r4, #16]
 8002896:	4298      	cmp	r0, r3
 8002898:	686b      	ldr	r3, [r5, #4]
 800289a:	d80f      	bhi.n	80028bc <HAL_RCC_OscConfig+0x20c>
 800289c:	f423 337c 	bic.w	r3, r3, #258048	@ 0x3f000
 80028a0:	2a40      	cmp	r2, #64	@ 0x40
 80028a2:	bf0c      	ite	eq
 80028a4:	f443 3300 	orreq.w	r3, r3, #131072	@ 0x20000
 80028a8:	ea43 3302 	orrne.w	r3, r3, r2, lsl #12
 80028ac:	606b      	str	r3, [r5, #4]
 80028ae:	e70a      	b.n	80026c6 <HAL_RCC_OscConfig+0x16>
 80028b0:	f7fe ff86 	bl	80017c0 <HAL_GetTick>
 80028b4:	1b80      	subs	r0, r0, r6
 80028b6:	2802      	cmp	r0, #2
 80028b8:	d9e5      	bls.n	8002886 <HAL_RCC_OscConfig+0x1d6>
 80028ba:	e78a      	b.n	80027d2 <HAL_RCC_OscConfig+0x122>
 80028bc:	f023 43fe 	bic.w	r3, r3, #2130706432	@ 0x7f000000
 80028c0:	ea43 6302 	orr.w	r3, r3, r2, lsl #24
 80028c4:	e7f2      	b.n	80028ac <HAL_RCC_OscConfig+0x1fc>
 80028c6:	f023 0301 	bic.w	r3, r3, #1
 80028ca:	602b      	str	r3, [r5, #0]
 80028cc:	f7fe ff78 	bl	80017c0 <HAL_GetTick>
 80028d0:	4606      	mov	r6, r0
 80028d2:	682b      	ldr	r3, [r5, #0]
 80028d4:	0759      	lsls	r1, r3, #29
 80028d6:	f57f aef6 	bpl.w	80026c6 <HAL_RCC_OscConfig+0x16>
 80028da:	f7fe ff71 	bl	80017c0 <HAL_GetTick>
 80028de:	1b80      	subs	r0, r0, r6
 80028e0:	2802      	cmp	r0, #2
 80028e2:	d9f6      	bls.n	80028d2 <HAL_RCC_OscConfig+0x222>
 80028e4:	e775      	b.n	80027d2 <HAL_RCC_OscConfig+0x122>
 80028e6:	68da      	ldr	r2, [r3, #12]
 80028e8:	f022 527c 	bic.w	r2, r2, #1056964608	@ 0x3f000000
 80028ec:	ea42 6201 	orr.w	r2, r2, r1, lsl #24
 80028f0:	60da      	str	r2, [r3, #12]
 80028f2:	e713      	b.n	800271c <HAL_RCC_OscConfig+0x6c>
 80028f4:	69e3      	ldr	r3, [r4, #28]
 80028f6:	4d15      	ldr	r5, [pc, #84]	@ (800294c <HAL_RCC_OscConfig+0x29c>)
 80028f8:	b363      	cbz	r3, 8002954 <HAL_RCC_OscConfig+0x2a4>
 80028fa:	682b      	ldr	r3, [r5, #0]
 80028fc:	f043 0380 	orr.w	r3, r3, #128	@ 0x80
 8002900:	602b      	str	r3, [r5, #0]
 8002902:	f7fe ff5d 	bl	80017c0 <HAL_GetTick>
 8002906:	4606      	mov	r6, r0
 8002908:	682b      	ldr	r3, [r5, #0]
 800290a:	05df      	lsls	r7, r3, #23
 800290c:	d511      	bpl.n	8002932 <HAL_RCC_OscConfig+0x282>
 800290e:	f7fe ff6f 	bl	80017f0 <HAL_GetREVID>
 8002912:	f241 0303 	movw	r3, #4099	@ 0x1003
 8002916:	6a22      	ldr	r2, [r4, #32]
 8002918:	4298      	cmp	r0, r3
 800291a:	d810      	bhi.n	800293e <HAL_RCC_OscConfig+0x28e>
 800291c:	686b      	ldr	r3, [r5, #4]
 800291e:	2a20      	cmp	r2, #32
 8002920:	f023 43f8 	bic.w	r3, r3, #2080374784	@ 0x7c000000
 8002924:	bf0c      	ite	eq
 8002926:	f043 4380 	orreq.w	r3, r3, #1073741824	@ 0x40000000
 800292a:	ea43 6382 	orrne.w	r3, r3, r2, lsl #26
 800292e:	606b      	str	r3, [r5, #4]
 8002930:	e6f4      	b.n	800271c <HAL_RCC_OscConfig+0x6c>
 8002932:	f7fe ff45 	bl	80017c0 <HAL_GetTick>
 8002936:	1b80      	subs	r0, r0, r6
 8002938:	2802      	cmp	r0, #2
 800293a:	d9e5      	bls.n	8002908 <HAL_RCC_OscConfig+0x258>
 800293c:	e749      	b.n	80027d2 <HAL_RCC_OscConfig+0x122>
 800293e:	68eb      	ldr	r3, [r5, #12]
 8002940:	f023 537c 	bic.w	r3, r3, #1056964608	@ 0x3f000000
 8002944:	ea43 6302 	orr.w	r3, r3, r2, lsl #24
 8002948:	60eb      	str	r3, [r5, #12]
 800294a:	e6e7      	b.n	800271c <HAL_RCC_OscConfig+0x6c>
 800294c:	58024400 	.word	0x58024400
 8002950:	58024800 	.word	0x58024800
 8002954:	682b      	ldr	r3, [r5, #0]
 8002956:	f023 0380 	bic.w	r3, r3, #128	@ 0x80
 800295a:	602b      	str	r3, [r5, #0]
 800295c:	f7fe ff30 	bl	80017c0 <HAL_GetTick>
 8002960:	4606      	mov	r6, r0
 8002962:	682b      	ldr	r3, [r5, #0]
 8002964:	05d8      	lsls	r0, r3, #23
 8002966:	f57f aed9 	bpl.w	800271c <HAL_RCC_OscConfig+0x6c>
 800296a:	f7fe ff29 	bl	80017c0 <HAL_GetTick>
 800296e:	1b80      	subs	r0, r0, r6
 8002970:	2802      	cmp	r0, #2
 8002972:	d9f6      	bls.n	8002962 <HAL_RCC_OscConfig+0x2b2>
 8002974:	e72d      	b.n	80027d2 <HAL_RCC_OscConfig+0x122>
 8002976:	6963      	ldr	r3, [r4, #20]
 8002978:	4d94      	ldr	r5, [pc, #592]	@ (8002bcc <HAL_RCC_OscConfig+0x51c>)
 800297a:	b183      	cbz	r3, 800299e <HAL_RCC_OscConfig+0x2ee>
 800297c:	6f6b      	ldr	r3, [r5, #116]	@ 0x74
 800297e:	f043 0301 	orr.w	r3, r3, #1
 8002982:	676b      	str	r3, [r5, #116]	@ 0x74
 8002984:	f7fe ff1c 	bl	80017c0 <HAL_GetTick>
 8002988:	4606      	mov	r6, r0
 800298a:	6f6b      	ldr	r3, [r5, #116]	@ 0x74
 800298c:	079b      	lsls	r3, r3, #30
 800298e:	f53f aec9 	bmi.w	8002724 <HAL_RCC_OscConfig+0x74>
 8002992:	f7fe ff15 	bl	80017c0 <HAL_GetTick>
 8002996:	1b80      	subs	r0, r0, r6
 8002998:	2802      	cmp	r0, #2
 800299a:	d9f6      	bls.n	800298a <HAL_RCC_OscConfig+0x2da>
 800299c:	e719      	b.n	80027d2 <HAL_RCC_OscConfig+0x122>
 800299e:	6f6b      	ldr	r3, [r5, #116]	@ 0x74
 80029a0:	f023 0301 	bic.w	r3, r3, #1
 80029a4:	676b      	str	r3, [r5, #116]	@ 0x74
 80029a6:	f7fe ff0b 	bl	80017c0 <HAL_GetTick>
 80029aa:	4606      	mov	r6, r0
 80029ac:	6f6b      	ldr	r3, [r5, #116]	@ 0x74
 80029ae:	079f      	lsls	r7, r3, #30
 80029b0:	f57f aeb8 	bpl.w	8002724 <HAL_RCC_OscConfig+0x74>
 80029b4:	f7fe ff04 	bl	80017c0 <HAL_GetTick>
 80029b8:	1b80      	subs	r0, r0, r6
 80029ba:	2802      	cmp	r0, #2
 80029bc:	d9f6      	bls.n	80029ac <HAL_RCC_OscConfig+0x2fc>
 80029be:	e708      	b.n	80027d2 <HAL_RCC_OscConfig+0x122>
 80029c0:	69a3      	ldr	r3, [r4, #24]
 80029c2:	4d82      	ldr	r5, [pc, #520]	@ (8002bcc <HAL_RCC_OscConfig+0x51c>)
 80029c4:	b183      	cbz	r3, 80029e8 <HAL_RCC_OscConfig+0x338>
 80029c6:	682b      	ldr	r3, [r5, #0]
 80029c8:	f443 5380 	orr.w	r3, r3, #4096	@ 0x1000
 80029cc:	602b      	str	r3, [r5, #0]
 80029ce:	f7fe fef7 	bl	80017c0 <HAL_GetTick>
 80029d2:	4606      	mov	r6, r0
 80029d4:	682b      	ldr	r3, [r5, #0]
 80029d6:	0498      	lsls	r0, r3, #18
 80029d8:	f53f aea8 	bmi.w	800272c <HAL_RCC_OscConfig+0x7c>
 80029dc:	f7fe fef0 	bl	80017c0 <HAL_GetTick>
 80029e0:	1b80      	subs	r0, r0, r6
 80029e2:	2802      	cmp	r0, #2
 80029e4:	d9f6      	bls.n	80029d4 <HAL_RCC_OscConfig+0x324>
 80029e6:	e6f4      	b.n	80027d2 <HAL_RCC_OscConfig+0x122>
 80029e8:	682b      	ldr	r3, [r5, #0]
 80029ea:	f423 5380 	bic.w	r3, r3, #4096	@ 0x1000
 80029ee:	602b      	str	r3, [r5, #0]
 80029f0:	f7fe fee6 	bl	80017c0 <HAL_GetTick>
 80029f4:	4606      	mov	r6, r0
 80029f6:	682b      	ldr	r3, [r5, #0]
 80029f8:	0499      	lsls	r1, r3, #18
 80029fa:	f57f ae97 	bpl.w	800272c <HAL_RCC_OscConfig+0x7c>
 80029fe:	f7fe fedf 	bl	80017c0 <HAL_GetTick>
 8002a02:	1b80      	subs	r0, r0, r6
 8002a04:	2802      	cmp	r0, #2
 8002a06:	d9f6      	bls.n	80029f6 <HAL_RCC_OscConfig+0x346>
 8002a08:	e6e3      	b.n	80027d2 <HAL_RCC_OscConfig+0x122>
 8002a0a:	f7fe fed9 	bl	80017c0 <HAL_GetTick>
 8002a0e:	1b80      	subs	r0, r0, r6
 8002a10:	2864      	cmp	r0, #100	@ 0x64
 8002a12:	f67f ae96 	bls.w	8002742 <HAL_RCC_OscConfig+0x92>
 8002a16:	e6dc      	b.n	80027d2 <HAL_RCC_OscConfig+0x122>
 8002a18:	b9b3      	cbnz	r3, 8002a48 <HAL_RCC_OscConfig+0x398>
 8002a1a:	6f2b      	ldr	r3, [r5, #112]	@ 0x70
 8002a1c:	f241 3788 	movw	r7, #5000	@ 0x1388
 8002a20:	f023 0301 	bic.w	r3, r3, #1
 8002a24:	672b      	str	r3, [r5, #112]	@ 0x70
 8002a26:	6f2b      	ldr	r3, [r5, #112]	@ 0x70
 8002a28:	f023 0304 	bic.w	r3, r3, #4
 8002a2c:	672b      	str	r3, [r5, #112]	@ 0x70
 8002a2e:	f7fe fec7 	bl	80017c0 <HAL_GetTick>
 8002a32:	4606      	mov	r6, r0
 8002a34:	6f2b      	ldr	r3, [r5, #112]	@ 0x70
 8002a36:	0798      	lsls	r0, r3, #30
 8002a38:	f57f ae9a 	bpl.w	8002770 <HAL_RCC_OscConfig+0xc0>
 8002a3c:	f7fe fec0 	bl	80017c0 <HAL_GetTick>
 8002a40:	1b80      	subs	r0, r0, r6
 8002a42:	42b8      	cmp	r0, r7
 8002a44:	d9f6      	bls.n	8002a34 <HAL_RCC_OscConfig+0x384>
 8002a46:	e6c4      	b.n	80027d2 <HAL_RCC_OscConfig+0x122>
 8002a48:	2b05      	cmp	r3, #5
 8002a4a:	6f2b      	ldr	r3, [r5, #112]	@ 0x70
 8002a4c:	d103      	bne.n	8002a56 <HAL_RCC_OscConfig+0x3a6>
 8002a4e:	f043 0304 	orr.w	r3, r3, #4
 8002a52:	672b      	str	r3, [r5, #112]	@ 0x70
 8002a54:	e67e      	b.n	8002754 <HAL_RCC_OscConfig+0xa4>
 8002a56:	f023 0301 	bic.w	r3, r3, #1
 8002a5a:	672b      	str	r3, [r5, #112]	@ 0x70
 8002a5c:	6f2b      	ldr	r3, [r5, #112]	@ 0x70
 8002a5e:	f023 0304 	bic.w	r3, r3, #4
 8002a62:	e67a      	b.n	800275a <HAL_RCC_OscConfig+0xaa>
 8002a64:	f7fe feac 	bl	80017c0 <HAL_GetTick>
 8002a68:	1b40      	subs	r0, r0, r5
 8002a6a:	42b8      	cmp	r0, r7
 8002a6c:	f67f ae7c 	bls.w	8002768 <HAL_RCC_OscConfig+0xb8>
 8002a70:	e6af      	b.n	80027d2 <HAL_RCC_OscConfig+0x122>
 8002a72:	4d56      	ldr	r5, [pc, #344]	@ (8002bcc <HAL_RCC_OscConfig+0x51c>)
 8002a74:	692b      	ldr	r3, [r5, #16]
 8002a76:	f003 0338 	and.w	r3, r3, #56	@ 0x38
 8002a7a:	2b18      	cmp	r3, #24
 8002a7c:	d078      	beq.n	8002b70 <HAL_RCC_OscConfig+0x4c0>
 8002a7e:	682b      	ldr	r3, [r5, #0]
 8002a80:	2a02      	cmp	r2, #2
 8002a82:	f023 7380 	bic.w	r3, r3, #16777216	@ 0x1000000
 8002a86:	602b      	str	r3, [r5, #0]
 8002a88:	d165      	bne.n	8002b56 <HAL_RCC_OscConfig+0x4a6>
 8002a8a:	f7fe fe99 	bl	80017c0 <HAL_GetTick>
 8002a8e:	4606      	mov	r6, r0
 8002a90:	682b      	ldr	r3, [r5, #0]
 8002a92:	0199      	lsls	r1, r3, #6
 8002a94:	d459      	bmi.n	8002b4a <HAL_RCC_OscConfig+0x49a>
 8002a96:	6aab      	ldr	r3, [r5, #40]	@ 0x28
 8002a98:	6aa2      	ldr	r2, [r4, #40]	@ 0x28
 8002a9a:	f423 737c 	bic.w	r3, r3, #1008	@ 0x3f0
 8002a9e:	f023 0303 	bic.w	r3, r3, #3
 8002aa2:	4313      	orrs	r3, r2
 8002aa4:	6ae2      	ldr	r2, [r4, #44]	@ 0x2c
 8002aa6:	ea43 1302 	orr.w	r3, r3, r2, lsl #4
 8002aaa:	62ab      	str	r3, [r5, #40]	@ 0x28
 8002aac:	6b63      	ldr	r3, [r4, #52]	@ 0x34
 8002aae:	6ba2      	ldr	r2, [r4, #56]	@ 0x38
 8002ab0:	3b01      	subs	r3, #1
 8002ab2:	3a01      	subs	r2, #1
 8002ab4:	025b      	lsls	r3, r3, #9
 8002ab6:	0412      	lsls	r2, r2, #16
 8002ab8:	b29b      	uxth	r3, r3
 8002aba:	f402 02fe 	and.w	r2, r2, #8323072	@ 0x7f0000
 8002abe:	4313      	orrs	r3, r2
 8002ac0:	6b22      	ldr	r2, [r4, #48]	@ 0x30
 8002ac2:	3a01      	subs	r2, #1
 8002ac4:	f3c2 0208 	ubfx	r2, r2, #0, #9
 8002ac8:	4313      	orrs	r3, r2
 8002aca:	6be2      	ldr	r2, [r4, #60]	@ 0x3c
 8002acc:	3a01      	subs	r2, #1
 8002ace:	0612      	lsls	r2, r2, #24
 8002ad0:	f002 42fe 	and.w	r2, r2, #2130706432	@ 0x7f000000
 8002ad4:	4313      	orrs	r3, r2
 8002ad6:	632b      	str	r3, [r5, #48]	@ 0x30
 8002ad8:	6aeb      	ldr	r3, [r5, #44]	@ 0x2c
 8002ada:	f023 0301 	bic.w	r3, r3, #1
 8002ade:	62eb      	str	r3, [r5, #44]	@ 0x2c
 8002ae0:	6b6b      	ldr	r3, [r5, #52]	@ 0x34
 8002ae2:	6ca2      	ldr	r2, [r4, #72]	@ 0x48
 8002ae4:	f36f 03cf 	bfc	r3, #3, #13
 8002ae8:	ea43 03c2 	orr.w	r3, r3, r2, lsl #3
 8002aec:	636b      	str	r3, [r5, #52]	@ 0x34
 8002aee:	6aeb      	ldr	r3, [r5, #44]	@ 0x2c
 8002af0:	6c22      	ldr	r2, [r4, #64]	@ 0x40
 8002af2:	f023 030c 	bic.w	r3, r3, #12
 8002af6:	4313      	orrs	r3, r2
 8002af8:	62eb      	str	r3, [r5, #44]	@ 0x2c
 8002afa:	6aeb      	ldr	r3, [r5, #44]	@ 0x2c
 8002afc:	6c62      	ldr	r2, [r4, #68]	@ 0x44
 8002afe:	f023 0302 	bic.w	r3, r3, #2
 8002b02:	4313      	orrs	r3, r2
 8002b04:	62eb      	str	r3, [r5, #44]	@ 0x2c
 8002b06:	6aeb      	ldr	r3, [r5, #44]	@ 0x2c
 8002b08:	f443 3380 	orr.w	r3, r3, #65536	@ 0x10000
 8002b0c:	62eb      	str	r3, [r5, #44]	@ 0x2c
 8002b0e:	6aeb      	ldr	r3, [r5, #44]	@ 0x2c
 8002b10:	f443 3300 	orr.w	r3, r3, #131072	@ 0x20000
 8002b14:	62eb      	str	r3, [r5, #44]	@ 0x2c
 8002b16:	6aeb      	ldr	r3, [r5, #44]	@ 0x2c
 8002b18:	f443 2380 	orr.w	r3, r3, #262144	@ 0x40000
 8002b1c:	62eb      	str	r3, [r5, #44]	@ 0x2c
 8002b1e:	6aeb      	ldr	r3, [r5, #44]	@ 0x2c
 8002b20:	f043 0301 	orr.w	r3, r3, #1
 8002b24:	62eb      	str	r3, [r5, #44]	@ 0x2c
 8002b26:	682b      	ldr	r3, [r5, #0]
 8002b28:	f043 7380 	orr.w	r3, r3, #16777216	@ 0x1000000
 8002b2c:	602b      	str	r3, [r5, #0]
 8002b2e:	f7fe fe47 	bl	80017c0 <HAL_GetTick>
 8002b32:	4d26      	ldr	r5, [pc, #152]	@ (8002bcc <HAL_RCC_OscConfig+0x51c>)
 8002b34:	4604      	mov	r4, r0
 8002b36:	682b      	ldr	r3, [r5, #0]
 8002b38:	019a      	lsls	r2, r3, #6
 8002b3a:	f53f ae1d 	bmi.w	8002778 <HAL_RCC_OscConfig+0xc8>
 8002b3e:	f7fe fe3f 	bl	80017c0 <HAL_GetTick>
 8002b42:	1b00      	subs	r0, r0, r4
 8002b44:	2802      	cmp	r0, #2
 8002b46:	d9f6      	bls.n	8002b36 <HAL_RCC_OscConfig+0x486>
 8002b48:	e643      	b.n	80027d2 <HAL_RCC_OscConfig+0x122>
 8002b4a:	f7fe fe39 	bl	80017c0 <HAL_GetTick>
 8002b4e:	1b80      	subs	r0, r0, r6
 8002b50:	2802      	cmp	r0, #2
 8002b52:	d99d      	bls.n	8002a90 <HAL_RCC_OscConfig+0x3e0>
 8002b54:	e63d      	b.n	80027d2 <HAL_RCC_OscConfig+0x122>
 8002b56:	f7fe fe33 	bl	80017c0 <HAL_GetTick>
 8002b5a:	4604      	mov	r4, r0
 8002b5c:	682b      	ldr	r3, [r5, #0]
 8002b5e:	019b      	lsls	r3, r3, #6
 8002b60:	f57f ae0a 	bpl.w	8002778 <HAL_RCC_OscConfig+0xc8>
 8002b64:	f7fe fe2c 	bl	80017c0 <HAL_GetTick>
 8002b68:	1b00      	subs	r0, r0, r4
 8002b6a:	2802      	cmp	r0, #2
 8002b6c:	d9f6      	bls.n	8002b5c <HAL_RCC_OscConfig+0x4ac>
 8002b6e:	e630      	b.n	80027d2 <HAL_RCC_OscConfig+0x122>
 8002b70:	2a01      	cmp	r2, #1
 8002b72:	6aab      	ldr	r3, [r5, #40]	@ 0x28
 8002b74:	6b28      	ldr	r0, [r5, #48]	@ 0x30
 8002b76:	f43f ae14 	beq.w	80027a2 <HAL_RCC_OscConfig+0xf2>
 8002b7a:	f003 0203 	and.w	r2, r3, #3
 8002b7e:	6aa1      	ldr	r1, [r4, #40]	@ 0x28
 8002b80:	428a      	cmp	r2, r1
 8002b82:	f47f ae0e 	bne.w	80027a2 <HAL_RCC_OscConfig+0xf2>
 8002b86:	f3c3 1305 	ubfx	r3, r3, #4, #6
 8002b8a:	6ae2      	ldr	r2, [r4, #44]	@ 0x2c
 8002b8c:	4293      	cmp	r3, r2
 8002b8e:	f47f ae08 	bne.w	80027a2 <HAL_RCC_OscConfig+0xf2>
 8002b92:	6b23      	ldr	r3, [r4, #48]	@ 0x30
 8002b94:	f3c0 0208 	ubfx	r2, r0, #0, #9
 8002b98:	3b01      	subs	r3, #1
 8002b9a:	429a      	cmp	r2, r3
 8002b9c:	f47f ae01 	bne.w	80027a2 <HAL_RCC_OscConfig+0xf2>
 8002ba0:	6b63      	ldr	r3, [r4, #52]	@ 0x34
 8002ba2:	f3c0 2246 	ubfx	r2, r0, #9, #7
 8002ba6:	3b01      	subs	r3, #1
 8002ba8:	429a      	cmp	r2, r3
 8002baa:	f47f adfa 	bne.w	80027a2 <HAL_RCC_OscConfig+0xf2>
 8002bae:	6ba3      	ldr	r3, [r4, #56]	@ 0x38
 8002bb0:	f3c0 4206 	ubfx	r2, r0, #16, #7
 8002bb4:	3b01      	subs	r3, #1
 8002bb6:	429a      	cmp	r2, r3
 8002bb8:	f47f adf3 	bne.w	80027a2 <HAL_RCC_OscConfig+0xf2>
 8002bbc:	6be3      	ldr	r3, [r4, #60]	@ 0x3c
 8002bbe:	f3c0 6006 	ubfx	r0, r0, #24, #7
 8002bc2:	3b01      	subs	r3, #1
 8002bc4:	1ac0      	subs	r0, r0, r3
 8002bc6:	bf18      	it	ne
 8002bc8:	2001      	movne	r0, #1
 8002bca:	e603      	b.n	80027d4 <HAL_RCC_OscConfig+0x124>
 8002bcc:	58024400 	.word	0x58024400

08002bd0 <HAL_RCC_GetSysClockFreq>:
 8002bd0:	4b49      	ldr	r3, [pc, #292]	@ (8002cf8 <HAL_RCC_GetSysClockFreq+0x128>)
 8002bd2:	691a      	ldr	r2, [r3, #16]
 8002bd4:	f002 0238 	and.w	r2, r2, #56	@ 0x38
 8002bd8:	2a10      	cmp	r2, #16
 8002bda:	b530      	push	{r4, r5, lr}
 8002bdc:	f000 8088 	beq.w	8002cf0 <HAL_RCC_GetSysClockFreq+0x120>
 8002be0:	2a18      	cmp	r2, #24
 8002be2:	d00c      	beq.n	8002bfe <HAL_RCC_GetSysClockFreq+0x2e>
 8002be4:	2a00      	cmp	r2, #0
 8002be6:	f040 8085 	bne.w	8002cf4 <HAL_RCC_GetSysClockFreq+0x124>
 8002bea:	681a      	ldr	r2, [r3, #0]
 8002bec:	4843      	ldr	r0, [pc, #268]	@ (8002cfc <HAL_RCC_GetSysClockFreq+0x12c>)
 8002bee:	f012 0f20 	tst.w	r2, #32
 8002bf2:	d003      	beq.n	8002bfc <HAL_RCC_GetSysClockFreq+0x2c>
 8002bf4:	681b      	ldr	r3, [r3, #0]
 8002bf6:	f3c3 03c1 	ubfx	r3, r3, #3, #2
 8002bfa:	40d8      	lsrs	r0, r3
 8002bfc:	bd30      	pop	{r4, r5, pc}
 8002bfe:	6a99      	ldr	r1, [r3, #40]	@ 0x28
 8002c00:	6a9d      	ldr	r5, [r3, #40]	@ 0x28
 8002c02:	6adc      	ldr	r4, [r3, #44]	@ 0x2c
 8002c04:	f415 7f7c 	tst.w	r5, #1008	@ 0x3f0
 8002c08:	f3c5 1005 	ubfx	r0, r5, #4, #6
 8002c0c:	6b5a      	ldr	r2, [r3, #52]	@ 0x34
 8002c0e:	d0f5      	beq.n	8002bfc <HAL_RCC_GetSysClockFreq+0x2c>
 8002c10:	f3c2 02cc 	ubfx	r2, r2, #3, #13
 8002c14:	f004 0401 	and.w	r4, r4, #1
 8002c18:	f001 0103 	and.w	r1, r1, #3
 8002c1c:	ee07 0a90 	vmov	s15, r0
 8002c20:	4362      	muls	r2, r4
 8002c22:	eeb7 6a00 	vmov.f32	s12, #112	@ 0x3f800000  1.0
 8002c26:	2901      	cmp	r1, #1
 8002c28:	eeb8 7ae7 	vcvt.f32.s32	s14, s15
 8002c2c:	ee06 2a90 	vmov	s13, r2
 8002c30:	eefa 6ae9 	vcvt.f32.s32	s13, s13, #13
 8002c34:	d04e      	beq.n	8002cd4 <HAL_RCC_GetSysClockFreq+0x104>
 8002c36:	2902      	cmp	r1, #2
 8002c38:	d03e      	beq.n	8002cb8 <HAL_RCC_GetSysClockFreq+0xe8>
 8002c3a:	2900      	cmp	r1, #0
 8002c3c:	d14a      	bne.n	8002cd4 <HAL_RCC_GetSysClockFreq+0x104>
 8002c3e:	681a      	ldr	r2, [r3, #0]
 8002c40:	0692      	lsls	r2, r2, #26
 8002c42:	d527      	bpl.n	8002c94 <HAL_RCC_GetSysClockFreq+0xc4>
 8002c44:	6819      	ldr	r1, [r3, #0]
 8002c46:	4a2d      	ldr	r2, [pc, #180]	@ (8002cfc <HAL_RCC_GetSysClockFreq+0x12c>)
 8002c48:	f3c1 01c1 	ubfx	r1, r1, #3, #2
 8002c4c:	6b1b      	ldr	r3, [r3, #48]	@ 0x30
 8002c4e:	40ca      	lsrs	r2, r1
 8002c50:	f3c3 0308 	ubfx	r3, r3, #0, #9
 8002c54:	ee07 2a90 	vmov	s15, r2
 8002c58:	eef8 5ae7 	vcvt.f32.s32	s11, s15
 8002c5c:	eec5 7a87 	vdiv.f32	s15, s11, s14
 8002c60:	ee07 3a10 	vmov	s14, r3
 8002c64:	eeb8 7ac7 	vcvt.f32.s32	s14, s14
 8002c68:	ee37 7a26 	vadd.f32	s14, s14, s13
 8002c6c:	ee37 7a06 	vadd.f32	s14, s14, s12
 8002c70:	ee67 7a87 	vmul.f32	s15, s15, s14
 8002c74:	4b20      	ldr	r3, [pc, #128]	@ (8002cf8 <HAL_RCC_GetSysClockFreq+0x128>)
 8002c76:	6b1b      	ldr	r3, [r3, #48]	@ 0x30
 8002c78:	f3c3 2346 	ubfx	r3, r3, #9, #7
 8002c7c:	3301      	adds	r3, #1
 8002c7e:	ee07 3a10 	vmov	s14, r3
 8002c82:	eef8 6ac7 	vcvt.f32.s32	s13, s14
 8002c86:	ee87 7aa6 	vdiv.f32	s14, s15, s13
 8002c8a:	eefc 7ac7 	vcvt.u32.f32	s15, s14
 8002c8e:	ee17 0a90 	vmov	r0, s15
 8002c92:	e7b3      	b.n	8002bfc <HAL_RCC_GetSysClockFreq+0x2c>
 8002c94:	6b1b      	ldr	r3, [r3, #48]	@ 0x30
 8002c96:	f3c3 0308 	ubfx	r3, r3, #0, #9
 8002c9a:	ee07 3a90 	vmov	s15, r3
 8002c9e:	eef8 7ae7 	vcvt.f32.s32	s15, s15
 8002ca2:	ee77 7aa6 	vadd.f32	s15, s15, s13
 8002ca6:	ee77 7a86 	vadd.f32	s15, s15, s12
 8002caa:	ed9f 6a15 	vldr	s12, [pc, #84]	@ 8002d00 <HAL_RCC_GetSysClockFreq+0x130>
 8002cae:	eec6 6a07 	vdiv.f32	s13, s12, s14
 8002cb2:	ee67 7aa6 	vmul.f32	s15, s15, s13
 8002cb6:	e7dd      	b.n	8002c74 <HAL_RCC_GetSysClockFreq+0xa4>
 8002cb8:	6b1b      	ldr	r3, [r3, #48]	@ 0x30
 8002cba:	f3c3 0308 	ubfx	r3, r3, #0, #9
 8002cbe:	ee07 3a90 	vmov	s15, r3
 8002cc2:	eef8 7ae7 	vcvt.f32.s32	s15, s15
 8002cc6:	ee77 7aa6 	vadd.f32	s15, s15, s13
 8002cca:	ee77 7a86 	vadd.f32	s15, s15, s12
 8002cce:	ed9f 6a0d 	vldr	s12, [pc, #52]	@ 8002d04 <HAL_RCC_GetSysClockFreq+0x134>
 8002cd2:	e7ec      	b.n	8002cae <HAL_RCC_GetSysClockFreq+0xde>
 8002cd4:	6b1b      	ldr	r3, [r3, #48]	@ 0x30
 8002cd6:	f3c3 0308 	ubfx	r3, r3, #0, #9
 8002cda:	ee07 3a90 	vmov	s15, r3
 8002cde:	eef8 7ae7 	vcvt.f32.s32	s15, s15
 8002ce2:	ee77 7aa6 	vadd.f32	s15, s15, s13
 8002ce6:	ee77 7a86 	vadd.f32	s15, s15, s12
 8002cea:	ed9f 6a07 	vldr	s12, [pc, #28]	@ 8002d08 <HAL_RCC_GetSysClockFreq+0x138>
 8002cee:	e7de      	b.n	8002cae <HAL_RCC_GetSysClockFreq+0xde>
 8002cf0:	4806      	ldr	r0, [pc, #24]	@ (8002d0c <HAL_RCC_GetSysClockFreq+0x13c>)
 8002cf2:	e783      	b.n	8002bfc <HAL_RCC_GetSysClockFreq+0x2c>
 8002cf4:	4806      	ldr	r0, [pc, #24]	@ (8002d10 <HAL_RCC_GetSysClockFreq+0x140>)
 8002cf6:	e781      	b.n	8002bfc <HAL_RCC_GetSysClockFreq+0x2c>
 8002cf8:	58024400 	.word	0x58024400
 8002cfc:	03d09000 	.word	0x03d09000
 8002d00:	4c742400 	.word	0x4c742400
 8002d04:	4bbebc20 	.word	0x4bbebc20
 8002d08:	4a742400 	.word	0x4a742400
 8002d0c:	017d7840 	.word	0x017d7840
 8002d10:	003d0900 	.word	0x003d0900

08002d14 <HAL_RCC_ClockConfig>:
 8002d14:	e92d 41f0 	stmdb	sp!, {r4, r5, r6, r7, r8, lr}
 8002d18:	460d      	mov	r5, r1
 8002d1a:	4604      	mov	r4, r0
 8002d1c:	b910      	cbnz	r0, 8002d24 <HAL_RCC_ClockConfig+0x10>
 8002d1e:	2001      	movs	r0, #1
 8002d20:	e8bd 81f0 	ldmia.w	sp!, {r4, r5, r6, r7, r8, pc}
 8002d24:	4a88      	ldr	r2, [pc, #544]	@ (8002f48 <HAL_RCC_ClockConfig+0x234>)
 8002d26:	6813      	ldr	r3, [r2, #0]
 8002d28:	f003 030f 	and.w	r3, r3, #15
 8002d2c:	428b      	cmp	r3, r1
 8002d2e:	f0c0 8093 	bcc.w	8002e58 <HAL_RCC_ClockConfig+0x144>
 8002d32:	6823      	ldr	r3, [r4, #0]
 8002d34:	075f      	lsls	r7, r3, #29
 8002d36:	f100 809b 	bmi.w	8002e70 <HAL_RCC_ClockConfig+0x15c>
 8002d3a:	071e      	lsls	r6, r3, #28
 8002d3c:	d50b      	bpl.n	8002d56 <HAL_RCC_ClockConfig+0x42>
 8002d3e:	4983      	ldr	r1, [pc, #524]	@ (8002f4c <HAL_RCC_ClockConfig+0x238>)
 8002d40:	6960      	ldr	r0, [r4, #20]
 8002d42:	69ca      	ldr	r2, [r1, #28]
 8002d44:	f002 0270 	and.w	r2, r2, #112	@ 0x70
 8002d48:	4290      	cmp	r0, r2
 8002d4a:	d904      	bls.n	8002d56 <HAL_RCC_ClockConfig+0x42>
 8002d4c:	69ca      	ldr	r2, [r1, #28]
 8002d4e:	f022 0270 	bic.w	r2, r2, #112	@ 0x70
 8002d52:	4302      	orrs	r2, r0
 8002d54:	61ca      	str	r2, [r1, #28]
 8002d56:	06d8      	lsls	r0, r3, #27
 8002d58:	d50b      	bpl.n	8002d72 <HAL_RCC_ClockConfig+0x5e>
 8002d5a:	497c      	ldr	r1, [pc, #496]	@ (8002f4c <HAL_RCC_ClockConfig+0x238>)
 8002d5c:	69a0      	ldr	r0, [r4, #24]
 8002d5e:	69ca      	ldr	r2, [r1, #28]
 8002d60:	f402 62e0 	and.w	r2, r2, #1792	@ 0x700
 8002d64:	4290      	cmp	r0, r2
 8002d66:	d904      	bls.n	8002d72 <HAL_RCC_ClockConfig+0x5e>
 8002d68:	69ca      	ldr	r2, [r1, #28]
 8002d6a:	f422 62e0 	bic.w	r2, r2, #1792	@ 0x700
 8002d6e:	4302      	orrs	r2, r0
 8002d70:	61ca      	str	r2, [r1, #28]
 8002d72:	0699      	lsls	r1, r3, #26
 8002d74:	d50b      	bpl.n	8002d8e <HAL_RCC_ClockConfig+0x7a>
 8002d76:	4975      	ldr	r1, [pc, #468]	@ (8002f4c <HAL_RCC_ClockConfig+0x238>)
 8002d78:	69e0      	ldr	r0, [r4, #28]
 8002d7a:	6a0a      	ldr	r2, [r1, #32]
 8002d7c:	f002 0270 	and.w	r2, r2, #112	@ 0x70
 8002d80:	4290      	cmp	r0, r2
 8002d82:	d904      	bls.n	8002d8e <HAL_RCC_ClockConfig+0x7a>
 8002d84:	6a0a      	ldr	r2, [r1, #32]
 8002d86:	f022 0270 	bic.w	r2, r2, #112	@ 0x70
 8002d8a:	4302      	orrs	r2, r0
 8002d8c:	620a      	str	r2, [r1, #32]
 8002d8e:	079a      	lsls	r2, r3, #30
 8002d90:	d50b      	bpl.n	8002daa <HAL_RCC_ClockConfig+0x96>
 8002d92:	496e      	ldr	r1, [pc, #440]	@ (8002f4c <HAL_RCC_ClockConfig+0x238>)
 8002d94:	68e0      	ldr	r0, [r4, #12]
 8002d96:	698a      	ldr	r2, [r1, #24]
 8002d98:	f002 020f 	and.w	r2, r2, #15
 8002d9c:	4290      	cmp	r0, r2
 8002d9e:	d904      	bls.n	8002daa <HAL_RCC_ClockConfig+0x96>
 8002da0:	698a      	ldr	r2, [r1, #24]
 8002da2:	f022 020f 	bic.w	r2, r2, #15
 8002da6:	4302      	orrs	r2, r0
 8002da8:	618a      	str	r2, [r1, #24]
 8002daa:	07df      	lsls	r7, r3, #31
 8002dac:	d46e      	bmi.n	8002e8c <HAL_RCC_ClockConfig+0x178>
 8002dae:	6823      	ldr	r3, [r4, #0]
 8002db0:	079e      	lsls	r6, r3, #30
 8002db2:	f100 80a1 	bmi.w	8002ef8 <HAL_RCC_ClockConfig+0x1e4>
 8002db6:	4964      	ldr	r1, [pc, #400]	@ (8002f48 <HAL_RCC_ClockConfig+0x234>)
 8002db8:	680a      	ldr	r2, [r1, #0]
 8002dba:	f002 020f 	and.w	r2, r2, #15
 8002dbe:	42aa      	cmp	r2, r5
 8002dc0:	f200 80a8 	bhi.w	8002f14 <HAL_RCC_ClockConfig+0x200>
 8002dc4:	0758      	lsls	r0, r3, #29
 8002dc6:	f100 80b1 	bmi.w	8002f2c <HAL_RCC_ClockConfig+0x218>
 8002dca:	0719      	lsls	r1, r3, #28
 8002dcc:	d50b      	bpl.n	8002de6 <HAL_RCC_ClockConfig+0xd2>
 8002dce:	495f      	ldr	r1, [pc, #380]	@ (8002f4c <HAL_RCC_ClockConfig+0x238>)
 8002dd0:	6960      	ldr	r0, [r4, #20]
 8002dd2:	69ca      	ldr	r2, [r1, #28]
 8002dd4:	f002 0270 	and.w	r2, r2, #112	@ 0x70
 8002dd8:	4290      	cmp	r0, r2
 8002dda:	d204      	bcs.n	8002de6 <HAL_RCC_ClockConfig+0xd2>
 8002ddc:	69ca      	ldr	r2, [r1, #28]
 8002dde:	f022 0270 	bic.w	r2, r2, #112	@ 0x70
 8002de2:	4302      	orrs	r2, r0
 8002de4:	61ca      	str	r2, [r1, #28]
 8002de6:	06da      	lsls	r2, r3, #27
 8002de8:	d50b      	bpl.n	8002e02 <HAL_RCC_ClockConfig+0xee>
 8002dea:	4958      	ldr	r1, [pc, #352]	@ (8002f4c <HAL_RCC_ClockConfig+0x238>)
 8002dec:	69a0      	ldr	r0, [r4, #24]
 8002dee:	69ca      	ldr	r2, [r1, #28]
 8002df0:	f402 62e0 	and.w	r2, r2, #1792	@ 0x700
 8002df4:	4290      	cmp	r0, r2
 8002df6:	d204      	bcs.n	8002e02 <HAL_RCC_ClockConfig+0xee>
 8002df8:	69ca      	ldr	r2, [r1, #28]
 8002dfa:	f422 62e0 	bic.w	r2, r2, #1792	@ 0x700
 8002dfe:	4302      	orrs	r2, r0
 8002e00:	61ca      	str	r2, [r1, #28]
 8002e02:	069b      	lsls	r3, r3, #26
 8002e04:	d50b      	bpl.n	8002e1e <HAL_RCC_ClockConfig+0x10a>
 8002e06:	4a51      	ldr	r2, [pc, #324]	@ (8002f4c <HAL_RCC_ClockConfig+0x238>)
 8002e08:	69e1      	ldr	r1, [r4, #28]
 8002e0a:	6a13      	ldr	r3, [r2, #32]
 8002e0c:	f003 0370 	and.w	r3, r3, #112	@ 0x70
 8002e10:	4299      	cmp	r1, r3
 8002e12:	d204      	bcs.n	8002e1e <HAL_RCC_ClockConfig+0x10a>
 8002e14:	6a13      	ldr	r3, [r2, #32]
 8002e16:	f023 0370 	bic.w	r3, r3, #112	@ 0x70
 8002e1a:	430b      	orrs	r3, r1
 8002e1c:	6213      	str	r3, [r2, #32]
 8002e1e:	f7ff fed7 	bl	8002bd0 <HAL_RCC_GetSysClockFreq>
 8002e22:	494a      	ldr	r1, [pc, #296]	@ (8002f4c <HAL_RCC_ClockConfig+0x238>)
 8002e24:	4a4a      	ldr	r2, [pc, #296]	@ (8002f50 <HAL_RCC_ClockConfig+0x23c>)
 8002e26:	698b      	ldr	r3, [r1, #24]
 8002e28:	f3c3 2303 	ubfx	r3, r3, #8, #4
 8002e2c:	5cd3      	ldrb	r3, [r2, r3]
 8002e2e:	f003 031f 	and.w	r3, r3, #31
 8002e32:	40d8      	lsrs	r0, r3
 8002e34:	698b      	ldr	r3, [r1, #24]
 8002e36:	f003 030f 	and.w	r3, r3, #15
 8002e3a:	5cd3      	ldrb	r3, [r2, r3]
 8002e3c:	4a45      	ldr	r2, [pc, #276]	@ (8002f54 <HAL_RCC_ClockConfig+0x240>)
 8002e3e:	f003 031f 	and.w	r3, r3, #31
 8002e42:	fa20 f303 	lsr.w	r3, r0, r3
 8002e46:	6013      	str	r3, [r2, #0]
 8002e48:	4b43      	ldr	r3, [pc, #268]	@ (8002f58 <HAL_RCC_ClockConfig+0x244>)
 8002e4a:	6018      	str	r0, [r3, #0]
 8002e4c:	4b43      	ldr	r3, [pc, #268]	@ (8002f5c <HAL_RCC_ClockConfig+0x248>)
 8002e4e:	e8bd 41f0 	ldmia.w	sp!, {r4, r5, r6, r7, r8, lr}
 8002e52:	6818      	ldr	r0, [r3, #0]
 8002e54:	f7fe bc54 	b.w	8001700 <HAL_InitTick>
 8002e58:	6813      	ldr	r3, [r2, #0]
 8002e5a:	f023 030f 	bic.w	r3, r3, #15
 8002e5e:	430b      	orrs	r3, r1
 8002e60:	6013      	str	r3, [r2, #0]
 8002e62:	6813      	ldr	r3, [r2, #0]
 8002e64:	f003 030f 	and.w	r3, r3, #15
 8002e68:	428b      	cmp	r3, r1
 8002e6a:	f47f af58 	bne.w	8002d1e <HAL_RCC_ClockConfig+0xa>
 8002e6e:	e760      	b.n	8002d32 <HAL_RCC_ClockConfig+0x1e>
 8002e70:	4936      	ldr	r1, [pc, #216]	@ (8002f4c <HAL_RCC_ClockConfig+0x238>)
 8002e72:	6920      	ldr	r0, [r4, #16]
 8002e74:	698a      	ldr	r2, [r1, #24]
 8002e76:	f002 0270 	and.w	r2, r2, #112	@ 0x70
 8002e7a:	4290      	cmp	r0, r2
 8002e7c:	f67f af5d 	bls.w	8002d3a <HAL_RCC_ClockConfig+0x26>
 8002e80:	698a      	ldr	r2, [r1, #24]
 8002e82:	f022 0270 	bic.w	r2, r2, #112	@ 0x70
 8002e86:	4302      	orrs	r2, r0
 8002e88:	618a      	str	r2, [r1, #24]
 8002e8a:	e756      	b.n	8002d3a <HAL_RCC_ClockConfig+0x26>
 8002e8c:	4b2f      	ldr	r3, [pc, #188]	@ (8002f4c <HAL_RCC_ClockConfig+0x238>)
 8002e8e:	68a1      	ldr	r1, [r4, #8]
 8002e90:	699a      	ldr	r2, [r3, #24]
 8002e92:	f422 6270 	bic.w	r2, r2, #3840	@ 0xf00
 8002e96:	430a      	orrs	r2, r1
 8002e98:	619a      	str	r2, [r3, #24]
 8002e9a:	6861      	ldr	r1, [r4, #4]
 8002e9c:	681a      	ldr	r2, [r3, #0]
 8002e9e:	2902      	cmp	r1, #2
 8002ea0:	d11d      	bne.n	8002ede <HAL_RCC_ClockConfig+0x1ca>
 8002ea2:	f412 3f00 	tst.w	r2, #131072	@ 0x20000
 8002ea6:	f43f af3a 	beq.w	8002d1e <HAL_RCC_ClockConfig+0xa>
 8002eaa:	691a      	ldr	r2, [r3, #16]
 8002eac:	f241 3888 	movw	r8, #5000	@ 0x1388
 8002eb0:	4f26      	ldr	r7, [pc, #152]	@ (8002f4c <HAL_RCC_ClockConfig+0x238>)
 8002eb2:	f022 0207 	bic.w	r2, r2, #7
 8002eb6:	430a      	orrs	r2, r1
 8002eb8:	611a      	str	r2, [r3, #16]
 8002eba:	f7fe fc81 	bl	80017c0 <HAL_GetTick>
 8002ebe:	4606      	mov	r6, r0
 8002ec0:	693b      	ldr	r3, [r7, #16]
 8002ec2:	6862      	ldr	r2, [r4, #4]
 8002ec4:	f003 0338 	and.w	r3, r3, #56	@ 0x38
 8002ec8:	ebb3 0fc2 	cmp.w	r3, r2, lsl #3
 8002ecc:	f43f af6f 	beq.w	8002dae <HAL_RCC_ClockConfig+0x9a>
 8002ed0:	f7fe fc76 	bl	80017c0 <HAL_GetTick>
 8002ed4:	1b80      	subs	r0, r0, r6
 8002ed6:	4540      	cmp	r0, r8
 8002ed8:	d9f2      	bls.n	8002ec0 <HAL_RCC_ClockConfig+0x1ac>
 8002eda:	2003      	movs	r0, #3
 8002edc:	e720      	b.n	8002d20 <HAL_RCC_ClockConfig+0xc>
 8002ede:	2903      	cmp	r1, #3
 8002ee0:	d102      	bne.n	8002ee8 <HAL_RCC_ClockConfig+0x1d4>
 8002ee2:	f012 7f00 	tst.w	r2, #33554432	@ 0x2000000
 8002ee6:	e7de      	b.n	8002ea6 <HAL_RCC_ClockConfig+0x192>
 8002ee8:	2901      	cmp	r1, #1
 8002eea:	d102      	bne.n	8002ef2 <HAL_RCC_ClockConfig+0x1de>
 8002eec:	f412 7f80 	tst.w	r2, #256	@ 0x100
 8002ef0:	e7d9      	b.n	8002ea6 <HAL_RCC_ClockConfig+0x192>
 8002ef2:	f012 0f04 	tst.w	r2, #4
 8002ef6:	e7d6      	b.n	8002ea6 <HAL_RCC_ClockConfig+0x192>
 8002ef8:	4914      	ldr	r1, [pc, #80]	@ (8002f4c <HAL_RCC_ClockConfig+0x238>)
 8002efa:	68e0      	ldr	r0, [r4, #12]
 8002efc:	698a      	ldr	r2, [r1, #24]
 8002efe:	f002 020f 	and.w	r2, r2, #15
 8002f02:	4290      	cmp	r0, r2
 8002f04:	f4bf af57 	bcs.w	8002db6 <HAL_RCC_ClockConfig+0xa2>
 8002f08:	698a      	ldr	r2, [r1, #24]
 8002f0a:	f022 020f 	bic.w	r2, r2, #15
 8002f0e:	4302      	orrs	r2, r0
 8002f10:	618a      	str	r2, [r1, #24]
 8002f12:	e750      	b.n	8002db6 <HAL_RCC_ClockConfig+0xa2>
 8002f14:	680a      	ldr	r2, [r1, #0]
 8002f16:	f022 020f 	bic.w	r2, r2, #15
 8002f1a:	432a      	orrs	r2, r5
 8002f1c:	600a      	str	r2, [r1, #0]
 8002f1e:	680a      	ldr	r2, [r1, #0]
 8002f20:	f002 020f 	and.w	r2, r2, #15
 8002f24:	42aa      	cmp	r2, r5
 8002f26:	f47f aefa 	bne.w	8002d1e <HAL_RCC_ClockConfig+0xa>
 8002f2a:	e74b      	b.n	8002dc4 <HAL_RCC_ClockConfig+0xb0>
 8002f2c:	4907      	ldr	r1, [pc, #28]	@ (8002f4c <HAL_RCC_ClockConfig+0x238>)
 8002f2e:	6920      	ldr	r0, [r4, #16]
 8002f30:	698a      	ldr	r2, [r1, #24]
 8002f32:	f002 0270 	and.w	r2, r2, #112	@ 0x70
 8002f36:	4290      	cmp	r0, r2
 8002f38:	f4bf af47 	bcs.w	8002dca <HAL_RCC_ClockConfig+0xb6>
 8002f3c:	698a      	ldr	r2, [r1, #24]
 8002f3e:	f022 0270 	bic.w	r2, r2, #112	@ 0x70
 8002f42:	4302      	orrs	r2, r0
 8002f44:	618a      	str	r2, [r1, #24]
 8002f46:	e740      	b.n	8002dca <HAL_RCC_ClockConfig+0xb6>
 8002f48:	52002000 	.word	0x52002000
 8002f4c:	58024400 	.word	0x58024400
 8002f50:	08005078 	.word	0x08005078
 8002f54:	24000008 	.word	0x24000008
 8002f58:	2400000c 	.word	0x2400000c
 8002f5c:	24000014 	.word	0x24000014

08002f60 <HAL_RCC_GetHCLKFreq>:
 8002f60:	b508      	push	{r3, lr}
 8002f62:	f7ff fe35 	bl	8002bd0 <HAL_RCC_GetSysClockFreq>
 8002f66:	4a0b      	ldr	r2, [pc, #44]	@ (8002f94 <HAL_RCC_GetHCLKFreq+0x34>)
 8002f68:	490b      	ldr	r1, [pc, #44]	@ (8002f98 <HAL_RCC_GetHCLKFreq+0x38>)
 8002f6a:	6993      	ldr	r3, [r2, #24]
 8002f6c:	6992      	ldr	r2, [r2, #24]
 8002f6e:	f3c3 2303 	ubfx	r3, r3, #8, #4
 8002f72:	f002 020f 	and.w	r2, r2, #15
 8002f76:	5ccb      	ldrb	r3, [r1, r3]
 8002f78:	f003 031f 	and.w	r3, r3, #31
 8002f7c:	fa20 f303 	lsr.w	r3, r0, r3
 8002f80:	5c88      	ldrb	r0, [r1, r2]
 8002f82:	4a06      	ldr	r2, [pc, #24]	@ (8002f9c <HAL_RCC_GetHCLKFreq+0x3c>)
 8002f84:	f000 001f 	and.w	r0, r0, #31
 8002f88:	fa23 f000 	lsr.w	r0, r3, r0
 8002f8c:	6010      	str	r0, [r2, #0]
 8002f8e:	4a04      	ldr	r2, [pc, #16]	@ (8002fa0 <HAL_RCC_GetHCLKFreq+0x40>)
 8002f90:	6013      	str	r3, [r2, #0]
 8002f92:	bd08      	pop	{r3, pc}
 8002f94:	58024400 	.word	0x58024400
 8002f98:	08005078 	.word	0x08005078
 8002f9c:	24000008 	.word	0x24000008
 8002fa0:	2400000c 	.word	0x2400000c

08002fa4 <HAL_RCC_GetPCLK1Freq>:
 8002fa4:	b508      	push	{r3, lr}
 8002fa6:	f7ff ffdb 	bl	8002f60 <HAL_RCC_GetHCLKFreq>
 8002faa:	4b05      	ldr	r3, [pc, #20]	@ (8002fc0 <HAL_RCC_GetPCLK1Freq+0x1c>)
 8002fac:	4a05      	ldr	r2, [pc, #20]	@ (8002fc4 <HAL_RCC_GetPCLK1Freq+0x20>)
 8002fae:	69db      	ldr	r3, [r3, #28]
 8002fb0:	f3c3 1302 	ubfx	r3, r3, #4, #3
 8002fb4:	5cd3      	ldrb	r3, [r2, r3]
 8002fb6:	f003 031f 	and.w	r3, r3, #31
 8002fba:	40d8      	lsrs	r0, r3
 8002fbc:	bd08      	pop	{r3, pc}
 8002fbe:	bf00      	nop
 8002fc0:	58024400 	.word	0x58024400
 8002fc4:	08005078 	.word	0x08005078

08002fc8 <HAL_RCC_GetPCLK2Freq>:
 8002fc8:	b508      	push	{r3, lr}
 8002fca:	f7ff ffc9 	bl	8002f60 <HAL_RCC_GetHCLKFreq>
 8002fce:	4b05      	ldr	r3, [pc, #20]	@ (8002fe4 <HAL_RCC_GetPCLK2Freq+0x1c>)
 8002fd0:	4a05      	ldr	r2, [pc, #20]	@ (8002fe8 <HAL_RCC_GetPCLK2Freq+0x20>)
 8002fd2:	69db      	ldr	r3, [r3, #28]
 8002fd4:	f3c3 2302 	ubfx	r3, r3, #8, #3
 8002fd8:	5cd3      	ldrb	r3, [r2, r3]
 8002fda:	f003 031f 	and.w	r3, r3, #31
 8002fde:	40d8      	lsrs	r0, r3
 8002fe0:	bd08      	pop	{r3, pc}
 8002fe2:	bf00      	nop
 8002fe4:	58024400 	.word	0x58024400
 8002fe8:	08005078 	.word	0x08005078

08002fec <RCCEx_PLL2_Config>:
 8002fec:	b5f8      	push	{r3, r4, r5, r6, r7, lr}
 8002fee:	4c39      	ldr	r4, [pc, #228]	@ (80030d4 <RCCEx_PLL2_Config+0xe8>)
 8002ff0:	4606      	mov	r6, r0
 8002ff2:	460d      	mov	r5, r1
 8002ff4:	6aa3      	ldr	r3, [r4, #40]	@ 0x28
 8002ff6:	f003 0303 	and.w	r3, r3, #3
 8002ffa:	2b03      	cmp	r3, #3
 8002ffc:	d067      	beq.n	80030ce <RCCEx_PLL2_Config+0xe2>
 8002ffe:	6823      	ldr	r3, [r4, #0]
 8003000:	f023 6380 	bic.w	r3, r3, #67108864	@ 0x4000000
 8003004:	6023      	str	r3, [r4, #0]
 8003006:	f7fe fbdb 	bl	80017c0 <HAL_GetTick>
 800300a:	4607      	mov	r7, r0
 800300c:	6823      	ldr	r3, [r4, #0]
 800300e:	011a      	lsls	r2, r3, #4
 8003010:	d449      	bmi.n	80030a6 <RCCEx_PLL2_Config+0xba>
 8003012:	6aa3      	ldr	r3, [r4, #40]	@ 0x28
 8003014:	6832      	ldr	r2, [r6, #0]
 8003016:	f423 337c 	bic.w	r3, r3, #258048	@ 0x3f000
 800301a:	ea43 3302 	orr.w	r3, r3, r2, lsl #12
 800301e:	62a3      	str	r3, [r4, #40]	@ 0x28
 8003020:	68b3      	ldr	r3, [r6, #8]
 8003022:	68f2      	ldr	r2, [r6, #12]
 8003024:	3b01      	subs	r3, #1
 8003026:	3a01      	subs	r2, #1
 8003028:	025b      	lsls	r3, r3, #9
 800302a:	0412      	lsls	r2, r2, #16
 800302c:	b29b      	uxth	r3, r3
 800302e:	f402 02fe 	and.w	r2, r2, #8323072	@ 0x7f0000
 8003032:	4313      	orrs	r3, r2
 8003034:	6872      	ldr	r2, [r6, #4]
 8003036:	3a01      	subs	r2, #1
 8003038:	f3c2 0208 	ubfx	r2, r2, #0, #9
 800303c:	4313      	orrs	r3, r2
 800303e:	6932      	ldr	r2, [r6, #16]
 8003040:	3a01      	subs	r2, #1
 8003042:	0612      	lsls	r2, r2, #24
 8003044:	f002 42fe 	and.w	r2, r2, #2130706432	@ 0x7f000000
 8003048:	4313      	orrs	r3, r2
 800304a:	63a3      	str	r3, [r4, #56]	@ 0x38
 800304c:	6ae3      	ldr	r3, [r4, #44]	@ 0x2c
 800304e:	6972      	ldr	r2, [r6, #20]
 8003050:	f023 03c0 	bic.w	r3, r3, #192	@ 0xc0
 8003054:	4313      	orrs	r3, r2
 8003056:	62e3      	str	r3, [r4, #44]	@ 0x2c
 8003058:	6ae3      	ldr	r3, [r4, #44]	@ 0x2c
 800305a:	69b2      	ldr	r2, [r6, #24]
 800305c:	f023 0320 	bic.w	r3, r3, #32
 8003060:	4313      	orrs	r3, r2
 8003062:	62e3      	str	r3, [r4, #44]	@ 0x2c
 8003064:	6ae3      	ldr	r3, [r4, #44]	@ 0x2c
 8003066:	f023 0310 	bic.w	r3, r3, #16
 800306a:	62e3      	str	r3, [r4, #44]	@ 0x2c
 800306c:	6be3      	ldr	r3, [r4, #60]	@ 0x3c
 800306e:	69f2      	ldr	r2, [r6, #28]
 8003070:	f36f 03cf 	bfc	r3, #3, #13
 8003074:	ea43 03c2 	orr.w	r3, r3, r2, lsl #3
 8003078:	63e3      	str	r3, [r4, #60]	@ 0x3c
 800307a:	6ae3      	ldr	r3, [r4, #44]	@ 0x2c
 800307c:	f043 0310 	orr.w	r3, r3, #16
 8003080:	62e3      	str	r3, [r4, #44]	@ 0x2c
 8003082:	6ae3      	ldr	r3, [r4, #44]	@ 0x2c
 8003084:	b9b5      	cbnz	r5, 80030b4 <RCCEx_PLL2_Config+0xc8>
 8003086:	f443 2300 	orr.w	r3, r3, #524288	@ 0x80000
 800308a:	62e3      	str	r3, [r4, #44]	@ 0x2c
 800308c:	4c11      	ldr	r4, [pc, #68]	@ (80030d4 <RCCEx_PLL2_Config+0xe8>)
 800308e:	6823      	ldr	r3, [r4, #0]
 8003090:	f043 6380 	orr.w	r3, r3, #67108864	@ 0x4000000
 8003094:	6023      	str	r3, [r4, #0]
 8003096:	f7fe fb93 	bl	80017c0 <HAL_GetTick>
 800309a:	4605      	mov	r5, r0
 800309c:	6823      	ldr	r3, [r4, #0]
 800309e:	011b      	lsls	r3, r3, #4
 80030a0:	d50f      	bpl.n	80030c2 <RCCEx_PLL2_Config+0xd6>
 80030a2:	2000      	movs	r0, #0
 80030a4:	e005      	b.n	80030b2 <RCCEx_PLL2_Config+0xc6>
 80030a6:	f7fe fb8b 	bl	80017c0 <HAL_GetTick>
 80030aa:	1bc0      	subs	r0, r0, r7
 80030ac:	2802      	cmp	r0, #2
 80030ae:	d9ad      	bls.n	800300c <RCCEx_PLL2_Config+0x20>
 80030b0:	2003      	movs	r0, #3
 80030b2:	bdf8      	pop	{r3, r4, r5, r6, r7, pc}
 80030b4:	2d01      	cmp	r5, #1
 80030b6:	bf0c      	ite	eq
 80030b8:	f443 1380 	orreq.w	r3, r3, #1048576	@ 0x100000
 80030bc:	f443 1300 	orrne.w	r3, r3, #2097152	@ 0x200000
 80030c0:	e7e3      	b.n	800308a <RCCEx_PLL2_Config+0x9e>
 80030c2:	f7fe fb7d 	bl	80017c0 <HAL_GetTick>
 80030c6:	1b40      	subs	r0, r0, r5
 80030c8:	2802      	cmp	r0, #2
 80030ca:	d9e7      	bls.n	800309c <RCCEx_PLL2_Config+0xb0>
 80030cc:	e7f0      	b.n	80030b0 <RCCEx_PLL2_Config+0xc4>
 80030ce:	2001      	movs	r0, #1
 80030d0:	e7ef      	b.n	80030b2 <RCCEx_PLL2_Config+0xc6>
 80030d2:	bf00      	nop
 80030d4:	58024400 	.word	0x58024400

080030d8 <RCCEx_PLL3_Config>:
 80030d8:	b5f8      	push	{r3, r4, r5, r6, r7, lr}
 80030da:	4c39      	ldr	r4, [pc, #228]	@ (80031c0 <RCCEx_PLL3_Config+0xe8>)
 80030dc:	4606      	mov	r6, r0
 80030de:	460d      	mov	r5, r1
 80030e0:	6aa3      	ldr	r3, [r4, #40]	@ 0x28
 80030e2:	f003 0303 	and.w	r3, r3, #3
 80030e6:	2b03      	cmp	r3, #3
 80030e8:	d067      	beq.n	80031ba <RCCEx_PLL3_Config+0xe2>
 80030ea:	6823      	ldr	r3, [r4, #0]
 80030ec:	f023 5380 	bic.w	r3, r3, #268435456	@ 0x10000000
 80030f0:	6023      	str	r3, [r4, #0]
 80030f2:	f7fe fb65 	bl	80017c0 <HAL_GetTick>
 80030f6:	4607      	mov	r7, r0
 80030f8:	6823      	ldr	r3, [r4, #0]
 80030fa:	009a      	lsls	r2, r3, #2
 80030fc:	d449      	bmi.n	8003192 <RCCEx_PLL3_Config+0xba>
 80030fe:	6aa3      	ldr	r3, [r4, #40]	@ 0x28
 8003100:	6832      	ldr	r2, [r6, #0]
 8003102:	f023 737c 	bic.w	r3, r3, #66060288	@ 0x3f00000
 8003106:	ea43 5302 	orr.w	r3, r3, r2, lsl #20
 800310a:	62a3      	str	r3, [r4, #40]	@ 0x28
 800310c:	68b3      	ldr	r3, [r6, #8]
 800310e:	68f2      	ldr	r2, [r6, #12]
 8003110:	3b01      	subs	r3, #1
 8003112:	3a01      	subs	r2, #1
 8003114:	025b      	lsls	r3, r3, #9
 8003116:	0412      	lsls	r2, r2, #16
 8003118:	b29b      	uxth	r3, r3
 800311a:	f402 02fe 	and.w	r2, r2, #8323072	@ 0x7f0000
 800311e:	4313      	orrs	r3, r2
 8003120:	6872      	ldr	r2, [r6, #4]
 8003122:	3a01      	subs	r2, #1
 8003124:	f3c2 0208 	ubfx	r2, r2, #0, #9
 8003128:	4313      	orrs	r3, r2
 800312a:	6932      	ldr	r2, [r6, #16]
 800312c:	3a01      	subs	r2, #1
 800312e:	0612      	lsls	r2, r2, #24
 8003130:	f002 42fe 	and.w	r2, r2, #2130706432	@ 0x7f000000
 8003134:	4313      	orrs	r3, r2
 8003136:	6423      	str	r3, [r4, #64]	@ 0x40
 8003138:	6ae3      	ldr	r3, [r4, #44]	@ 0x2c
 800313a:	6972      	ldr	r2, [r6, #20]
 800313c:	f423 6340 	bic.w	r3, r3, #3072	@ 0xc00
 8003140:	4313      	orrs	r3, r2
 8003142:	62e3      	str	r3, [r4, #44]	@ 0x2c
 8003144:	6ae3      	ldr	r3, [r4, #44]	@ 0x2c
 8003146:	69b2      	ldr	r2, [r6, #24]
 8003148:	f423 7300 	bic.w	r3, r3, #512	@ 0x200
 800314c:	4313      	orrs	r3, r2
 800314e:	62e3      	str	r3, [r4, #44]	@ 0x2c
 8003150:	6ae3      	ldr	r3, [r4, #44]	@ 0x2c
 8003152:	f423 7380 	bic.w	r3, r3, #256	@ 0x100
 8003156:	62e3      	str	r3, [r4, #44]	@ 0x2c
 8003158:	6c63      	ldr	r3, [r4, #68]	@ 0x44
 800315a:	69f2      	ldr	r2, [r6, #28]
 800315c:	f36f 03cf 	bfc	r3, #3, #13
 8003160:	ea43 03c2 	orr.w	r3, r3, r2, lsl #3
 8003164:	6463      	str	r3, [r4, #68]	@ 0x44
 8003166:	6ae3      	ldr	r3, [r4, #44]	@ 0x2c
 8003168:	f443 7380 	orr.w	r3, r3, #256	@ 0x100
 800316c:	62e3      	str	r3, [r4, #44]	@ 0x2c
 800316e:	6ae3      	ldr	r3, [r4, #44]	@ 0x2c
 8003170:	b9b5      	cbnz	r5, 80031a0 <RCCEx_PLL3_Config+0xc8>
 8003172:	f443 0380 	orr.w	r3, r3, #4194304	@ 0x400000
 8003176:	62e3      	str	r3, [r4, #44]	@ 0x2c
 8003178:	4c11      	ldr	r4, [pc, #68]	@ (80031c0 <RCCEx_PLL3_Config+0xe8>)
 800317a:	6823      	ldr	r3, [r4, #0]
 800317c:	f043 5380 	orr.w	r3, r3, #268435456	@ 0x10000000
 8003180:	6023      	str	r3, [r4, #0]
 8003182:	f7fe fb1d 	bl	80017c0 <HAL_GetTick>
 8003186:	4605      	mov	r5, r0
 8003188:	6823      	ldr	r3, [r4, #0]
 800318a:	009b      	lsls	r3, r3, #2
 800318c:	d50f      	bpl.n	80031ae <RCCEx_PLL3_Config+0xd6>
 800318e:	2000      	movs	r0, #0
 8003190:	e005      	b.n	800319e <RCCEx_PLL3_Config+0xc6>
 8003192:	f7fe fb15 	bl	80017c0 <HAL_GetTick>
 8003196:	1bc0      	subs	r0, r0, r7
 8003198:	2802      	cmp	r0, #2
 800319a:	d9ad      	bls.n	80030f8 <RCCEx_PLL3_Config+0x20>
 800319c:	2003      	movs	r0, #3
 800319e:	bdf8      	pop	{r3, r4, r5, r6, r7, pc}
 80031a0:	2d01      	cmp	r5, #1
 80031a2:	bf0c      	ite	eq
 80031a4:	f443 0300 	orreq.w	r3, r3, #8388608	@ 0x800000
 80031a8:	f043 7380 	orrne.w	r3, r3, #16777216	@ 0x1000000
 80031ac:	e7e3      	b.n	8003176 <RCCEx_PLL3_Config+0x9e>
 80031ae:	f7fe fb07 	bl	80017c0 <HAL_GetTick>
 80031b2:	1b40      	subs	r0, r0, r5
 80031b4:	2802      	cmp	r0, #2
 80031b6:	d9e7      	bls.n	8003188 <RCCEx_PLL3_Config+0xb0>
 80031b8:	e7f0      	b.n	800319c <RCCEx_PLL3_Config+0xc4>
 80031ba:	2001      	movs	r0, #1
 80031bc:	e7ef      	b.n	800319e <RCCEx_PLL3_Config+0xc6>
 80031be:	bf00      	nop
 80031c0:	58024400 	.word	0x58024400

080031c4 <HAL_RCCEx_PeriphCLKConfig>:
 80031c4:	e92d 43f8 	stmdb	sp!, {r3, r4, r5, r6, r7, r8, r9, lr}
 80031c8:	6803      	ldr	r3, [r0, #0]
 80031ca:	4605      	mov	r5, r0
 80031cc:	011e      	lsls	r6, r3, #4
 80031ce:	d51e      	bpl.n	800320e <HAL_RCCEx_PeriphCLKConfig+0x4a>
 80031d0:	6e43      	ldr	r3, [r0, #100]	@ 0x64
 80031d2:	f5b3 1f00 	cmp.w	r3, #2097152	@ 0x200000
 80031d6:	d02a      	beq.n	800322e <HAL_RCCEx_PeriphCLKConfig+0x6a>
 80031d8:	d80f      	bhi.n	80031fa <HAL_RCCEx_PeriphCLKConfig+0x36>
 80031da:	b1d3      	cbz	r3, 8003212 <HAL_RCCEx_PeriphCLKConfig+0x4e>
 80031dc:	f5b3 1f80 	cmp.w	r3, #1048576	@ 0x100000
 80031e0:	d01d      	beq.n	800321e <HAL_RCCEx_PeriphCLKConfig+0x5a>
 80031e2:	2601      	movs	r6, #1
 80031e4:	682b      	ldr	r3, [r5, #0]
 80031e6:	05dc      	lsls	r4, r3, #23
 80031e8:	d54e      	bpl.n	8003288 <HAL_RCCEx_PeriphCLKConfig+0xc4>
 80031ea:	6d6b      	ldr	r3, [r5, #84]	@ 0x54
 80031ec:	2b04      	cmp	r3, #4
 80031ee:	d84a      	bhi.n	8003286 <HAL_RCCEx_PeriphCLKConfig+0xc2>
 80031f0:	e8df f003 	tbb	[pc, r3]
 80031f4:	27433d22 	.word	0x27433d22
 80031f8:	27          	.byte	0x27
 80031f9:	00          	.byte	0x00
 80031fa:	f5b3 1f40 	cmp.w	r3, #3145728	@ 0x300000
 80031fe:	d1f0      	bne.n	80031e2 <HAL_RCCEx_PeriphCLKConfig+0x1e>
 8003200:	4a82      	ldr	r2, [pc, #520]	@ (800340c <HAL_RCCEx_PeriphCLKConfig+0x248>)
 8003202:	6e69      	ldr	r1, [r5, #100]	@ 0x64
 8003204:	6d13      	ldr	r3, [r2, #80]	@ 0x50
 8003206:	f423 1340 	bic.w	r3, r3, #3145728	@ 0x300000
 800320a:	430b      	orrs	r3, r1
 800320c:	6513      	str	r3, [r2, #80]	@ 0x50
 800320e:	2600      	movs	r6, #0
 8003210:	e7e8      	b.n	80031e4 <HAL_RCCEx_PeriphCLKConfig+0x20>
 8003212:	4a7e      	ldr	r2, [pc, #504]	@ (800340c <HAL_RCCEx_PeriphCLKConfig+0x248>)
 8003214:	6ad3      	ldr	r3, [r2, #44]	@ 0x2c
 8003216:	f443 3300 	orr.w	r3, r3, #131072	@ 0x20000
 800321a:	62d3      	str	r3, [r2, #44]	@ 0x2c
 800321c:	e7f0      	b.n	8003200 <HAL_RCCEx_PeriphCLKConfig+0x3c>
 800321e:	2102      	movs	r1, #2
 8003220:	3004      	adds	r0, #4
 8003222:	f7ff fee3 	bl	8002fec <RCCEx_PLL2_Config>
 8003226:	4606      	mov	r6, r0
 8003228:	2800      	cmp	r0, #0
 800322a:	d1db      	bne.n	80031e4 <HAL_RCCEx_PeriphCLKConfig+0x20>
 800322c:	e7e8      	b.n	8003200 <HAL_RCCEx_PeriphCLKConfig+0x3c>
 800322e:	2102      	movs	r1, #2
 8003230:	3024      	adds	r0, #36	@ 0x24
 8003232:	f7ff ff51 	bl	80030d8 <RCCEx_PLL3_Config>
 8003236:	e7f6      	b.n	8003226 <HAL_RCCEx_PeriphCLKConfig+0x62>
 8003238:	4a74      	ldr	r2, [pc, #464]	@ (800340c <HAL_RCCEx_PeriphCLKConfig+0x248>)
 800323a:	6ad3      	ldr	r3, [r2, #44]	@ 0x2c
 800323c:	f443 3300 	orr.w	r3, r3, #131072	@ 0x20000
 8003240:	62d3      	str	r3, [r2, #44]	@ 0x2c
 8003242:	4634      	mov	r4, r6
 8003244:	bb14      	cbnz	r4, 800328c <HAL_RCCEx_PeriphCLKConfig+0xc8>
 8003246:	4a71      	ldr	r2, [pc, #452]	@ (800340c <HAL_RCCEx_PeriphCLKConfig+0x248>)
 8003248:	6d69      	ldr	r1, [r5, #84]	@ 0x54
 800324a:	6d13      	ldr	r3, [r2, #80]	@ 0x50
 800324c:	f023 0307 	bic.w	r3, r3, #7
 8003250:	430b      	orrs	r3, r1
 8003252:	6513      	str	r3, [r2, #80]	@ 0x50
 8003254:	682b      	ldr	r3, [r5, #0]
 8003256:	0598      	lsls	r0, r3, #22
 8003258:	d527      	bpl.n	80032aa <HAL_RCCEx_PeriphCLKConfig+0xe6>
 800325a:	6dab      	ldr	r3, [r5, #88]	@ 0x58
 800325c:	2b80      	cmp	r3, #128	@ 0x80
 800325e:	d041      	beq.n	80032e4 <HAL_RCCEx_PeriphCLKConfig+0x120>
 8003260:	d816      	bhi.n	8003290 <HAL_RCCEx_PeriphCLKConfig+0xcc>
 8003262:	b39b      	cbz	r3, 80032cc <HAL_RCCEx_PeriphCLKConfig+0x108>
 8003264:	2b40      	cmp	r3, #64	@ 0x40
 8003266:	d037      	beq.n	80032d8 <HAL_RCCEx_PeriphCLKConfig+0x114>
 8003268:	2601      	movs	r6, #1
 800326a:	4634      	mov	r4, r6
 800326c:	e01d      	b.n	80032aa <HAL_RCCEx_PeriphCLKConfig+0xe6>
 800326e:	2100      	movs	r1, #0
 8003270:	1d28      	adds	r0, r5, #4
 8003272:	f7ff febb 	bl	8002fec <RCCEx_PLL2_Config>
 8003276:	4604      	mov	r4, r0
 8003278:	e7e4      	b.n	8003244 <HAL_RCCEx_PeriphCLKConfig+0x80>
 800327a:	2100      	movs	r1, #0
 800327c:	f105 0024 	add.w	r0, r5, #36	@ 0x24
 8003280:	f7ff ff2a 	bl	80030d8 <RCCEx_PLL3_Config>
 8003284:	e7f7      	b.n	8003276 <HAL_RCCEx_PeriphCLKConfig+0xb2>
 8003286:	2601      	movs	r6, #1
 8003288:	4634      	mov	r4, r6
 800328a:	e7e3      	b.n	8003254 <HAL_RCCEx_PeriphCLKConfig+0x90>
 800328c:	4626      	mov	r6, r4
 800328e:	e7e1      	b.n	8003254 <HAL_RCCEx_PeriphCLKConfig+0x90>
 8003290:	2bc0      	cmp	r3, #192	@ 0xc0
 8003292:	d002      	beq.n	800329a <HAL_RCCEx_PeriphCLKConfig+0xd6>
 8003294:	f5b3 7f80 	cmp.w	r3, #256	@ 0x100
 8003298:	d1e6      	bne.n	8003268 <HAL_RCCEx_PeriphCLKConfig+0xa4>
 800329a:	bb4c      	cbnz	r4, 80032f0 <HAL_RCCEx_PeriphCLKConfig+0x12c>
 800329c:	4a5b      	ldr	r2, [pc, #364]	@ (800340c <HAL_RCCEx_PeriphCLKConfig+0x248>)
 800329e:	6da9      	ldr	r1, [r5, #88]	@ 0x58
 80032a0:	6d13      	ldr	r3, [r2, #80]	@ 0x50
 80032a2:	f423 73e0 	bic.w	r3, r3, #448	@ 0x1c0
 80032a6:	430b      	orrs	r3, r1
 80032a8:	6513      	str	r3, [r2, #80]	@ 0x50
 80032aa:	682b      	ldr	r3, [r5, #0]
 80032ac:	0559      	lsls	r1, r3, #21
 80032ae:	d530      	bpl.n	8003312 <HAL_RCCEx_PeriphCLKConfig+0x14e>
 80032b0:	f8d5 30a4 	ldr.w	r3, [r5, #164]	@ 0xa4
 80032b4:	f5b3 0f80 	cmp.w	r3, #4194304	@ 0x400000
 80032b8:	d047      	beq.n	800334a <HAL_RCCEx_PeriphCLKConfig+0x186>
 80032ba:	d81b      	bhi.n	80032f4 <HAL_RCCEx_PeriphCLKConfig+0x130>
 80032bc:	2b00      	cmp	r3, #0
 80032be:	d038      	beq.n	8003332 <HAL_RCCEx_PeriphCLKConfig+0x16e>
 80032c0:	f5b3 1f00 	cmp.w	r3, #2097152	@ 0x200000
 80032c4:	d03b      	beq.n	800333e <HAL_RCCEx_PeriphCLKConfig+0x17a>
 80032c6:	2601      	movs	r6, #1
 80032c8:	4634      	mov	r4, r6
 80032ca:	e022      	b.n	8003312 <HAL_RCCEx_PeriphCLKConfig+0x14e>
 80032cc:	4a4f      	ldr	r2, [pc, #316]	@ (800340c <HAL_RCCEx_PeriphCLKConfig+0x248>)
 80032ce:	6ad3      	ldr	r3, [r2, #44]	@ 0x2c
 80032d0:	f443 3300 	orr.w	r3, r3, #131072	@ 0x20000
 80032d4:	62d3      	str	r3, [r2, #44]	@ 0x2c
 80032d6:	e7e0      	b.n	800329a <HAL_RCCEx_PeriphCLKConfig+0xd6>
 80032d8:	2100      	movs	r1, #0
 80032da:	1d28      	adds	r0, r5, #4
 80032dc:	f7ff fe86 	bl	8002fec <RCCEx_PLL2_Config>
 80032e0:	4604      	mov	r4, r0
 80032e2:	e7da      	b.n	800329a <HAL_RCCEx_PeriphCLKConfig+0xd6>
 80032e4:	2100      	movs	r1, #0
 80032e6:	f105 0024 	add.w	r0, r5, #36	@ 0x24
 80032ea:	f7ff fef5 	bl	80030d8 <RCCEx_PLL3_Config>
 80032ee:	e7f7      	b.n	80032e0 <HAL_RCCEx_PeriphCLKConfig+0x11c>
 80032f0:	4626      	mov	r6, r4
 80032f2:	e7da      	b.n	80032aa <HAL_RCCEx_PeriphCLKConfig+0xe6>
 80032f4:	f5b3 0fc0 	cmp.w	r3, #6291456	@ 0x600000
 80032f8:	d002      	beq.n	8003300 <HAL_RCCEx_PeriphCLKConfig+0x13c>
 80032fa:	f5b3 0f00 	cmp.w	r3, #8388608	@ 0x800000
 80032fe:	d1e2      	bne.n	80032c6 <HAL_RCCEx_PeriphCLKConfig+0x102>
 8003300:	bb4c      	cbnz	r4, 8003356 <HAL_RCCEx_PeriphCLKConfig+0x192>
 8003302:	4a42      	ldr	r2, [pc, #264]	@ (800340c <HAL_RCCEx_PeriphCLKConfig+0x248>)
 8003304:	f8d5 10a4 	ldr.w	r1, [r5, #164]	@ 0xa4
 8003308:	6d93      	ldr	r3, [r2, #88]	@ 0x58
 800330a:	f423 0360 	bic.w	r3, r3, #14680064	@ 0xe00000
 800330e:	430b      	orrs	r3, r1
 8003310:	6593      	str	r3, [r2, #88]	@ 0x58
 8003312:	682b      	ldr	r3, [r5, #0]
 8003314:	051a      	lsls	r2, r3, #20
 8003316:	d52f      	bpl.n	8003378 <HAL_RCCEx_PeriphCLKConfig+0x1b4>
 8003318:	f8d5 30a8 	ldr.w	r3, [r5, #168]	@ 0xa8
 800331c:	f1b3 7f00 	cmp.w	r3, #33554432	@ 0x2000000
 8003320:	d043      	beq.n	80033aa <HAL_RCCEx_PeriphCLKConfig+0x1e6>
 8003322:	d81a      	bhi.n	800335a <HAL_RCCEx_PeriphCLKConfig+0x196>
 8003324:	b3ab      	cbz	r3, 8003392 <HAL_RCCEx_PeriphCLKConfig+0x1ce>
 8003326:	f1b3 7f80 	cmp.w	r3, #16777216	@ 0x1000000
 800332a:	d038      	beq.n	800339e <HAL_RCCEx_PeriphCLKConfig+0x1da>
 800332c:	2601      	movs	r6, #1
 800332e:	4634      	mov	r4, r6
 8003330:	e022      	b.n	8003378 <HAL_RCCEx_PeriphCLKConfig+0x1b4>
 8003332:	4a36      	ldr	r2, [pc, #216]	@ (800340c <HAL_RCCEx_PeriphCLKConfig+0x248>)
 8003334:	6ad3      	ldr	r3, [r2, #44]	@ 0x2c
 8003336:	f443 3300 	orr.w	r3, r3, #131072	@ 0x20000
 800333a:	62d3      	str	r3, [r2, #44]	@ 0x2c
 800333c:	e7e0      	b.n	8003300 <HAL_RCCEx_PeriphCLKConfig+0x13c>
 800333e:	2100      	movs	r1, #0
 8003340:	1d28      	adds	r0, r5, #4
 8003342:	f7ff fe53 	bl	8002fec <RCCEx_PLL2_Config>
 8003346:	4604      	mov	r4, r0
 8003348:	e7da      	b.n	8003300 <HAL_RCCEx_PeriphCLKConfig+0x13c>
 800334a:	2100      	movs	r1, #0
 800334c:	f105 0024 	add.w	r0, r5, #36	@ 0x24
 8003350:	f7ff fec2 	bl	80030d8 <RCCEx_PLL3_Config>
 8003354:	e7f7      	b.n	8003346 <HAL_RCCEx_PeriphCLKConfig+0x182>
 8003356:	4626      	mov	r6, r4
 8003358:	e7db      	b.n	8003312 <HAL_RCCEx_PeriphCLKConfig+0x14e>
 800335a:	f1b3 7f40 	cmp.w	r3, #50331648	@ 0x3000000
 800335e:	d002      	beq.n	8003366 <HAL_RCCEx_PeriphCLKConfig+0x1a2>
 8003360:	f1b3 6f80 	cmp.w	r3, #67108864	@ 0x4000000
 8003364:	d1e2      	bne.n	800332c <HAL_RCCEx_PeriphCLKConfig+0x168>
 8003366:	bb34      	cbnz	r4, 80033b6 <HAL_RCCEx_PeriphCLKConfig+0x1f2>
 8003368:	4a28      	ldr	r2, [pc, #160]	@ (800340c <HAL_RCCEx_PeriphCLKConfig+0x248>)
 800336a:	f8d5 10a8 	ldr.w	r1, [r5, #168]	@ 0xa8
 800336e:	6d93      	ldr	r3, [r2, #88]	@ 0x58
 8003370:	f023 63e0 	bic.w	r3, r3, #117440512	@ 0x7000000
 8003374:	430b      	orrs	r3, r1
 8003376:	6593      	str	r3, [r2, #88]	@ 0x58
 8003378:	682b      	ldr	r3, [r5, #0]
 800337a:	019b      	lsls	r3, r3, #6
 800337c:	d527      	bpl.n	80033ce <HAL_RCCEx_PeriphCLKConfig+0x20a>
 800337e:	6cab      	ldr	r3, [r5, #72]	@ 0x48
 8003380:	2b20      	cmp	r3, #32
 8003382:	d03a      	beq.n	80033fa <HAL_RCCEx_PeriphCLKConfig+0x236>
 8003384:	d819      	bhi.n	80033ba <HAL_RCCEx_PeriphCLKConfig+0x1f6>
 8003386:	b1d3      	cbz	r3, 80033be <HAL_RCCEx_PeriphCLKConfig+0x1fa>
 8003388:	2b10      	cmp	r3, #16
 800338a:	d030      	beq.n	80033ee <HAL_RCCEx_PeriphCLKConfig+0x22a>
 800338c:	2601      	movs	r6, #1
 800338e:	4634      	mov	r4, r6
 8003390:	e01d      	b.n	80033ce <HAL_RCCEx_PeriphCLKConfig+0x20a>
 8003392:	4a1e      	ldr	r2, [pc, #120]	@ (800340c <HAL_RCCEx_PeriphCLKConfig+0x248>)
 8003394:	6ad3      	ldr	r3, [r2, #44]	@ 0x2c
 8003396:	f443 3300 	orr.w	r3, r3, #131072	@ 0x20000
 800339a:	62d3      	str	r3, [r2, #44]	@ 0x2c
 800339c:	e7e3      	b.n	8003366 <HAL_RCCEx_PeriphCLKConfig+0x1a2>
 800339e:	2100      	movs	r1, #0
 80033a0:	1d28      	adds	r0, r5, #4
 80033a2:	f7ff fe23 	bl	8002fec <RCCEx_PLL2_Config>
 80033a6:	4604      	mov	r4, r0
 80033a8:	e7dd      	b.n	8003366 <HAL_RCCEx_PeriphCLKConfig+0x1a2>
 80033aa:	2100      	movs	r1, #0
 80033ac:	f105 0024 	add.w	r0, r5, #36	@ 0x24
 80033b0:	f7ff fe92 	bl	80030d8 <RCCEx_PLL3_Config>
 80033b4:	e7f7      	b.n	80033a6 <HAL_RCCEx_PeriphCLKConfig+0x1e2>
 80033b6:	4626      	mov	r6, r4
 80033b8:	e7de      	b.n	8003378 <HAL_RCCEx_PeriphCLKConfig+0x1b4>
 80033ba:	2b30      	cmp	r3, #48	@ 0x30
 80033bc:	d1e6      	bne.n	800338c <HAL_RCCEx_PeriphCLKConfig+0x1c8>
 80033be:	bb14      	cbnz	r4, 8003406 <HAL_RCCEx_PeriphCLKConfig+0x242>
 80033c0:	4a12      	ldr	r2, [pc, #72]	@ (800340c <HAL_RCCEx_PeriphCLKConfig+0x248>)
 80033c2:	6ca9      	ldr	r1, [r5, #72]	@ 0x48
 80033c4:	6cd3      	ldr	r3, [r2, #76]	@ 0x4c
 80033c6:	f023 0330 	bic.w	r3, r3, #48	@ 0x30
 80033ca:	430b      	orrs	r3, r1
 80033cc:	64d3      	str	r3, [r2, #76]	@ 0x4c
 80033ce:	682b      	ldr	r3, [r5, #0]
 80033d0:	04df      	lsls	r7, r3, #19
 80033d2:	d52c      	bpl.n	800342e <HAL_RCCEx_PeriphCLKConfig+0x26a>
 80033d4:	6deb      	ldr	r3, [r5, #92]	@ 0x5c
 80033d6:	f5b3 5f00 	cmp.w	r3, #8192	@ 0x2000
 80033da:	d073      	beq.n	80034c4 <HAL_RCCEx_PeriphCLKConfig+0x300>
 80033dc:	d818      	bhi.n	8003410 <HAL_RCCEx_PeriphCLKConfig+0x24c>
 80033de:	2b00      	cmp	r3, #0
 80033e0:	d064      	beq.n	80034ac <HAL_RCCEx_PeriphCLKConfig+0x2e8>
 80033e2:	f5b3 5f80 	cmp.w	r3, #4096	@ 0x1000
 80033e6:	d067      	beq.n	80034b8 <HAL_RCCEx_PeriphCLKConfig+0x2f4>
 80033e8:	2601      	movs	r6, #1
 80033ea:	4634      	mov	r4, r6
 80033ec:	e01f      	b.n	800342e <HAL_RCCEx_PeriphCLKConfig+0x26a>
 80033ee:	4a07      	ldr	r2, [pc, #28]	@ (800340c <HAL_RCCEx_PeriphCLKConfig+0x248>)
 80033f0:	6ad3      	ldr	r3, [r2, #44]	@ 0x2c
 80033f2:	f443 3300 	orr.w	r3, r3, #131072	@ 0x20000
 80033f6:	62d3      	str	r3, [r2, #44]	@ 0x2c
 80033f8:	e7e1      	b.n	80033be <HAL_RCCEx_PeriphCLKConfig+0x1fa>
 80033fa:	2102      	movs	r1, #2
 80033fc:	1d28      	adds	r0, r5, #4
 80033fe:	f7ff fdf5 	bl	8002fec <RCCEx_PLL2_Config>
 8003402:	4604      	mov	r4, r0
 8003404:	e7db      	b.n	80033be <HAL_RCCEx_PeriphCLKConfig+0x1fa>
 8003406:	4626      	mov	r6, r4
 8003408:	e7e1      	b.n	80033ce <HAL_RCCEx_PeriphCLKConfig+0x20a>
 800340a:	bf00      	nop
 800340c:	58024400 	.word	0x58024400
 8003410:	f5b3 5f40 	cmp.w	r3, #12288	@ 0x3000
 8003414:	d002      	beq.n	800341c <HAL_RCCEx_PeriphCLKConfig+0x258>
 8003416:	f5b3 4f80 	cmp.w	r3, #16384	@ 0x4000
 800341a:	d1e5      	bne.n	80033e8 <HAL_RCCEx_PeriphCLKConfig+0x224>
 800341c:	2c00      	cmp	r4, #0
 800341e:	d157      	bne.n	80034d0 <HAL_RCCEx_PeriphCLKConfig+0x30c>
 8003420:	4a9b      	ldr	r2, [pc, #620]	@ (8003690 <HAL_RCCEx_PeriphCLKConfig+0x4cc>)
 8003422:	6de9      	ldr	r1, [r5, #92]	@ 0x5c
 8003424:	6d13      	ldr	r3, [r2, #80]	@ 0x50
 8003426:	f423 43e0 	bic.w	r3, r3, #28672	@ 0x7000
 800342a:	430b      	orrs	r3, r1
 800342c:	6513      	str	r3, [r2, #80]	@ 0x50
 800342e:	682b      	ldr	r3, [r5, #0]
 8003430:	0498      	lsls	r0, r3, #18
 8003432:	d50b      	bpl.n	800344c <HAL_RCCEx_PeriphCLKConfig+0x288>
 8003434:	6e2b      	ldr	r3, [r5, #96]	@ 0x60
 8003436:	f5b3 3f00 	cmp.w	r3, #131072	@ 0x20000
 800343a:	d062      	beq.n	8003502 <HAL_RCCEx_PeriphCLKConfig+0x33e>
 800343c:	d84a      	bhi.n	80034d4 <HAL_RCCEx_PeriphCLKConfig+0x310>
 800343e:	2b00      	cmp	r3, #0
 8003440:	d050      	beq.n	80034e4 <HAL_RCCEx_PeriphCLKConfig+0x320>
 8003442:	f5b3 3f80 	cmp.w	r3, #65536	@ 0x10000
 8003446:	d056      	beq.n	80034f6 <HAL_RCCEx_PeriphCLKConfig+0x332>
 8003448:	2601      	movs	r6, #1
 800344a:	4634      	mov	r4, r6
 800344c:	682b      	ldr	r3, [r5, #0]
 800344e:	0459      	lsls	r1, r3, #17
 8003450:	d50c      	bpl.n	800346c <HAL_RCCEx_PeriphCLKConfig+0x2a8>
 8003452:	f8d5 30ac 	ldr.w	r3, [r5, #172]	@ 0xac
 8003456:	f1b3 5f00 	cmp.w	r3, #536870912	@ 0x20000000
 800345a:	d072      	beq.n	8003542 <HAL_RCCEx_PeriphCLKConfig+0x37e>
 800345c:	d859      	bhi.n	8003512 <HAL_RCCEx_PeriphCLKConfig+0x34e>
 800345e:	2b00      	cmp	r3, #0
 8003460:	d05f      	beq.n	8003522 <HAL_RCCEx_PeriphCLKConfig+0x35e>
 8003462:	f1b3 5f80 	cmp.w	r3, #268435456	@ 0x10000000
 8003466:	d066      	beq.n	8003536 <HAL_RCCEx_PeriphCLKConfig+0x372>
 8003468:	2601      	movs	r6, #1
 800346a:	4634      	mov	r4, r6
 800346c:	682b      	ldr	r3, [r5, #0]
 800346e:	041a      	lsls	r2, r3, #16
 8003470:	d511      	bpl.n	8003496 <HAL_RCCEx_PeriphCLKConfig+0x2d2>
 8003472:	6eeb      	ldr	r3, [r5, #108]	@ 0x6c
 8003474:	f1b3 5f80 	cmp.w	r3, #268435456	@ 0x10000000
 8003478:	d06b      	beq.n	8003552 <HAL_RCCEx_PeriphCLKConfig+0x38e>
 800347a:	f1b3 5f00 	cmp.w	r3, #536870912	@ 0x20000000
 800347e:	d06e      	beq.n	800355e <HAL_RCCEx_PeriphCLKConfig+0x39a>
 8003480:	2b00      	cmp	r3, #0
 8003482:	d172      	bne.n	800356a <HAL_RCCEx_PeriphCLKConfig+0x3a6>
 8003484:	2c00      	cmp	r4, #0
 8003486:	d173      	bne.n	8003570 <HAL_RCCEx_PeriphCLKConfig+0x3ac>
 8003488:	4a81      	ldr	r2, [pc, #516]	@ (8003690 <HAL_RCCEx_PeriphCLKConfig+0x4cc>)
 800348a:	6ee9      	ldr	r1, [r5, #108]	@ 0x6c
 800348c:	6d13      	ldr	r3, [r2, #80]	@ 0x50
 800348e:	f023 5340 	bic.w	r3, r3, #805306368	@ 0x30000000
 8003492:	430b      	orrs	r3, r1
 8003494:	6513      	str	r3, [r2, #80]	@ 0x50
 8003496:	682b      	ldr	r3, [r5, #0]
 8003498:	01db      	lsls	r3, r3, #7
 800349a:	d579      	bpl.n	8003590 <HAL_RCCEx_PeriphCLKConfig+0x3cc>
 800349c:	6c6b      	ldr	r3, [r5, #68]	@ 0x44
 800349e:	2b03      	cmp	r3, #3
 80034a0:	f200 80ba 	bhi.w	8003618 <HAL_RCCEx_PeriphCLKConfig+0x454>
 80034a4:	e8df f003 	tbb	[pc, r3]
 80034a8:	6bb2666b 	.word	0x6bb2666b
 80034ac:	4a78      	ldr	r2, [pc, #480]	@ (8003690 <HAL_RCCEx_PeriphCLKConfig+0x4cc>)
 80034ae:	6ad3      	ldr	r3, [r2, #44]	@ 0x2c
 80034b0:	f443 3300 	orr.w	r3, r3, #131072	@ 0x20000
 80034b4:	62d3      	str	r3, [r2, #44]	@ 0x2c
 80034b6:	e7b1      	b.n	800341c <HAL_RCCEx_PeriphCLKConfig+0x258>
 80034b8:	2100      	movs	r1, #0
 80034ba:	1d28      	adds	r0, r5, #4
 80034bc:	f7ff fd96 	bl	8002fec <RCCEx_PLL2_Config>
 80034c0:	4604      	mov	r4, r0
 80034c2:	e7ab      	b.n	800341c <HAL_RCCEx_PeriphCLKConfig+0x258>
 80034c4:	2100      	movs	r1, #0
 80034c6:	f105 0024 	add.w	r0, r5, #36	@ 0x24
 80034ca:	f7ff fe05 	bl	80030d8 <RCCEx_PLL3_Config>
 80034ce:	e7f7      	b.n	80034c0 <HAL_RCCEx_PeriphCLKConfig+0x2fc>
 80034d0:	4626      	mov	r6, r4
 80034d2:	e7ac      	b.n	800342e <HAL_RCCEx_PeriphCLKConfig+0x26a>
 80034d4:	f423 3280 	bic.w	r2, r3, #65536	@ 0x10000
 80034d8:	f5b2 2f80 	cmp.w	r2, #262144	@ 0x40000
 80034dc:	d002      	beq.n	80034e4 <HAL_RCCEx_PeriphCLKConfig+0x320>
 80034de:	f5b3 3f40 	cmp.w	r3, #196608	@ 0x30000
 80034e2:	d1b1      	bne.n	8003448 <HAL_RCCEx_PeriphCLKConfig+0x284>
 80034e4:	b99c      	cbnz	r4, 800350e <HAL_RCCEx_PeriphCLKConfig+0x34a>
 80034e6:	4a6a      	ldr	r2, [pc, #424]	@ (8003690 <HAL_RCCEx_PeriphCLKConfig+0x4cc>)
 80034e8:	6e29      	ldr	r1, [r5, #96]	@ 0x60
 80034ea:	6d13      	ldr	r3, [r2, #80]	@ 0x50
 80034ec:	f423 23e0 	bic.w	r3, r3, #458752	@ 0x70000
 80034f0:	430b      	orrs	r3, r1
 80034f2:	6513      	str	r3, [r2, #80]	@ 0x50
 80034f4:	e7aa      	b.n	800344c <HAL_RCCEx_PeriphCLKConfig+0x288>
 80034f6:	2101      	movs	r1, #1
 80034f8:	1d28      	adds	r0, r5, #4
 80034fa:	f7ff fd77 	bl	8002fec <RCCEx_PLL2_Config>
 80034fe:	4604      	mov	r4, r0
 8003500:	e7f0      	b.n	80034e4 <HAL_RCCEx_PeriphCLKConfig+0x320>
 8003502:	2101      	movs	r1, #1
 8003504:	f105 0024 	add.w	r0, r5, #36	@ 0x24
 8003508:	f7ff fde6 	bl	80030d8 <RCCEx_PLL3_Config>
 800350c:	e7f7      	b.n	80034fe <HAL_RCCEx_PeriphCLKConfig+0x33a>
 800350e:	4626      	mov	r6, r4
 8003510:	e79c      	b.n	800344c <HAL_RCCEx_PeriphCLKConfig+0x288>
 8003512:	f023 5280 	bic.w	r2, r3, #268435456	@ 0x10000000
 8003516:	f1b2 4f80 	cmp.w	r2, #1073741824	@ 0x40000000
 800351a:	d002      	beq.n	8003522 <HAL_RCCEx_PeriphCLKConfig+0x35e>
 800351c:	f1b3 5f40 	cmp.w	r3, #805306368	@ 0x30000000
 8003520:	d1a2      	bne.n	8003468 <HAL_RCCEx_PeriphCLKConfig+0x2a4>
 8003522:	b9a4      	cbnz	r4, 800354e <HAL_RCCEx_PeriphCLKConfig+0x38a>
 8003524:	4a5a      	ldr	r2, [pc, #360]	@ (8003690 <HAL_RCCEx_PeriphCLKConfig+0x4cc>)
 8003526:	f8d5 10ac 	ldr.w	r1, [r5, #172]	@ 0xac
 800352a:	6d93      	ldr	r3, [r2, #88]	@ 0x58
 800352c:	f023 43e0 	bic.w	r3, r3, #1879048192	@ 0x70000000
 8003530:	430b      	orrs	r3, r1
 8003532:	6593      	str	r3, [r2, #88]	@ 0x58
 8003534:	e79a      	b.n	800346c <HAL_RCCEx_PeriphCLKConfig+0x2a8>
 8003536:	2101      	movs	r1, #1
 8003538:	1d28      	adds	r0, r5, #4
 800353a:	f7ff fd57 	bl	8002fec <RCCEx_PLL2_Config>
 800353e:	4604      	mov	r4, r0
 8003540:	e7ef      	b.n	8003522 <HAL_RCCEx_PeriphCLKConfig+0x35e>
 8003542:	2101      	movs	r1, #1
 8003544:	f105 0024 	add.w	r0, r5, #36	@ 0x24
 8003548:	f7ff fdc6 	bl	80030d8 <RCCEx_PLL3_Config>
 800354c:	e7f7      	b.n	800353e <HAL_RCCEx_PeriphCLKConfig+0x37a>
 800354e:	4626      	mov	r6, r4
 8003550:	e78c      	b.n	800346c <HAL_RCCEx_PeriphCLKConfig+0x2a8>
 8003552:	4a4f      	ldr	r2, [pc, #316]	@ (8003690 <HAL_RCCEx_PeriphCLKConfig+0x4cc>)
 8003554:	6ad3      	ldr	r3, [r2, #44]	@ 0x2c
 8003556:	f443 3300 	orr.w	r3, r3, #131072	@ 0x20000
 800355a:	62d3      	str	r3, [r2, #44]	@ 0x2c
 800355c:	e792      	b.n	8003484 <HAL_RCCEx_PeriphCLKConfig+0x2c0>
 800355e:	2101      	movs	r1, #1
 8003560:	1d28      	adds	r0, r5, #4
 8003562:	f7ff fd43 	bl	8002fec <RCCEx_PLL2_Config>
 8003566:	4604      	mov	r4, r0
 8003568:	e78c      	b.n	8003484 <HAL_RCCEx_PeriphCLKConfig+0x2c0>
 800356a:	2601      	movs	r6, #1
 800356c:	4634      	mov	r4, r6
 800356e:	e792      	b.n	8003496 <HAL_RCCEx_PeriphCLKConfig+0x2d2>
 8003570:	4626      	mov	r6, r4
 8003572:	e790      	b.n	8003496 <HAL_RCCEx_PeriphCLKConfig+0x2d2>
 8003574:	4a46      	ldr	r2, [pc, #280]	@ (8003690 <HAL_RCCEx_PeriphCLKConfig+0x4cc>)
 8003576:	6ad3      	ldr	r3, [r2, #44]	@ 0x2c
 8003578:	f443 3300 	orr.w	r3, r3, #131072	@ 0x20000
 800357c:	62d3      	str	r3, [r2, #44]	@ 0x2c
 800357e:	2c00      	cmp	r4, #0
 8003580:	d14d      	bne.n	800361e <HAL_RCCEx_PeriphCLKConfig+0x45a>
 8003582:	4a43      	ldr	r2, [pc, #268]	@ (8003690 <HAL_RCCEx_PeriphCLKConfig+0x4cc>)
 8003584:	6c69      	ldr	r1, [r5, #68]	@ 0x44
 8003586:	6cd3      	ldr	r3, [r2, #76]	@ 0x4c
 8003588:	f023 0303 	bic.w	r3, r3, #3
 800358c:	430b      	orrs	r3, r1
 800358e:	64d3      	str	r3, [r2, #76]	@ 0x4c
 8003590:	682b      	ldr	r3, [r5, #0]
 8003592:	025f      	lsls	r7, r3, #9
 8003594:	d54d      	bpl.n	8003632 <HAL_RCCEx_PeriphCLKConfig+0x46e>
 8003596:	4f3f      	ldr	r7, [pc, #252]	@ (8003694 <HAL_RCCEx_PeriphCLKConfig+0x4d0>)
 8003598:	683b      	ldr	r3, [r7, #0]
 800359a:	f443 7380 	orr.w	r3, r3, #256	@ 0x100
 800359e:	603b      	str	r3, [r7, #0]
 80035a0:	f7fe f90e 	bl	80017c0 <HAL_GetTick>
 80035a4:	4680      	mov	r8, r0
 80035a6:	683b      	ldr	r3, [r7, #0]
 80035a8:	05d8      	lsls	r0, r3, #23
 80035aa:	d53a      	bpl.n	8003622 <HAL_RCCEx_PeriphCLKConfig+0x45e>
 80035ac:	2c00      	cmp	r4, #0
 80035ae:	d16d      	bne.n	800368c <HAL_RCCEx_PeriphCLKConfig+0x4c8>
 80035b0:	4b37      	ldr	r3, [pc, #220]	@ (8003690 <HAL_RCCEx_PeriphCLKConfig+0x4cc>)
 80035b2:	f8d5 00b0 	ldr.w	r0, [r5, #176]	@ 0xb0
 80035b6:	6f1a      	ldr	r2, [r3, #112]	@ 0x70
 80035b8:	4042      	eors	r2, r0
 80035ba:	f412 7f40 	tst.w	r2, #768	@ 0x300
 80035be:	d00b      	beq.n	80035d8 <HAL_RCCEx_PeriphCLKConfig+0x414>
 80035c0:	6f1a      	ldr	r2, [r3, #112]	@ 0x70
 80035c2:	6f19      	ldr	r1, [r3, #112]	@ 0x70
 80035c4:	f422 7240 	bic.w	r2, r2, #768	@ 0x300
 80035c8:	f441 3180 	orr.w	r1, r1, #65536	@ 0x10000
 80035cc:	6719      	str	r1, [r3, #112]	@ 0x70
 80035ce:	6f19      	ldr	r1, [r3, #112]	@ 0x70
 80035d0:	f421 3180 	bic.w	r1, r1, #65536	@ 0x10000
 80035d4:	6719      	str	r1, [r3, #112]	@ 0x70
 80035d6:	671a      	str	r2, [r3, #112]	@ 0x70
 80035d8:	f5b0 7f80 	cmp.w	r0, #256	@ 0x100
 80035dc:	d041      	beq.n	8003662 <HAL_RCCEx_PeriphCLKConfig+0x49e>
 80035de:	f8d5 30b0 	ldr.w	r3, [r5, #176]	@ 0xb0
 80035e2:	492b      	ldr	r1, [pc, #172]	@ (8003690 <HAL_RCCEx_PeriphCLKConfig+0x4cc>)
 80035e4:	f403 7240 	and.w	r2, r3, #768	@ 0x300
 80035e8:	f5b2 7f40 	cmp.w	r2, #768	@ 0x300
 80035ec:	d14a      	bne.n	8003684 <HAL_RCCEx_PeriphCLKConfig+0x4c0>
 80035ee:	6908      	ldr	r0, [r1, #16]
 80035f0:	4a29      	ldr	r2, [pc, #164]	@ (8003698 <HAL_RCCEx_PeriphCLKConfig+0x4d4>)
 80035f2:	f420 507c 	bic.w	r0, r0, #16128	@ 0x3f00
 80035f6:	ea02 1213 	and.w	r2, r2, r3, lsr #4
 80035fa:	4302      	orrs	r2, r0
 80035fc:	610a      	str	r2, [r1, #16]
 80035fe:	f3c3 030b 	ubfx	r3, r3, #0, #12
 8003602:	4a23      	ldr	r2, [pc, #140]	@ (8003690 <HAL_RCCEx_PeriphCLKConfig+0x4cc>)
 8003604:	6f11      	ldr	r1, [r2, #112]	@ 0x70
 8003606:	430b      	orrs	r3, r1
 8003608:	6713      	str	r3, [r2, #112]	@ 0x70
 800360a:	e012      	b.n	8003632 <HAL_RCCEx_PeriphCLKConfig+0x46e>
 800360c:	2102      	movs	r1, #2
 800360e:	1d28      	adds	r0, r5, #4
 8003610:	f7ff fcec 	bl	8002fec <RCCEx_PLL2_Config>
 8003614:	4604      	mov	r4, r0
 8003616:	e7b2      	b.n	800357e <HAL_RCCEx_PeriphCLKConfig+0x3ba>
 8003618:	2601      	movs	r6, #1
 800361a:	4634      	mov	r4, r6
 800361c:	e7b8      	b.n	8003590 <HAL_RCCEx_PeriphCLKConfig+0x3cc>
 800361e:	4626      	mov	r6, r4
 8003620:	e7b6      	b.n	8003590 <HAL_RCCEx_PeriphCLKConfig+0x3cc>
 8003622:	f7fe f8cd 	bl	80017c0 <HAL_GetTick>
 8003626:	eba0 0008 	sub.w	r0, r0, r8
 800362a:	2864      	cmp	r0, #100	@ 0x64
 800362c:	d9bb      	bls.n	80035a6 <HAL_RCCEx_PeriphCLKConfig+0x3e2>
 800362e:	2603      	movs	r6, #3
 8003630:	4634      	mov	r4, r6
 8003632:	682b      	ldr	r3, [r5, #0]
 8003634:	07da      	lsls	r2, r3, #31
 8003636:	d509      	bpl.n	800364c <HAL_RCCEx_PeriphCLKConfig+0x488>
 8003638:	6fab      	ldr	r3, [r5, #120]	@ 0x78
 800363a:	2b10      	cmp	r3, #16
 800363c:	d043      	beq.n	80036c6 <HAL_RCCEx_PeriphCLKConfig+0x502>
 800363e:	d82d      	bhi.n	800369c <HAL_RCCEx_PeriphCLKConfig+0x4d8>
 8003640:	2b00      	cmp	r3, #0
 8003642:	d031      	beq.n	80036a8 <HAL_RCCEx_PeriphCLKConfig+0x4e4>
 8003644:	2b08      	cmp	r3, #8
 8003646:	d038      	beq.n	80036ba <HAL_RCCEx_PeriphCLKConfig+0x4f6>
 8003648:	2601      	movs	r6, #1
 800364a:	4634      	mov	r4, r6
 800364c:	682b      	ldr	r3, [r5, #0]
 800364e:	079b      	lsls	r3, r3, #30
 8003650:	d54e      	bpl.n	80036f0 <HAL_RCCEx_PeriphCLKConfig+0x52c>
 8003652:	6f6b      	ldr	r3, [r5, #116]	@ 0x74
 8003654:	2b05      	cmp	r3, #5
 8003656:	d861      	bhi.n	800371c <HAL_RCCEx_PeriphCLKConfig+0x558>
 8003658:	e8df f003 	tbb	[pc, r3]
 800365c:	425a3d42 	.word	0x425a3d42
 8003660:	4242      	.short	0x4242
 8003662:	f7fe f8ad 	bl	80017c0 <HAL_GetTick>
 8003666:	f8df 8028 	ldr.w	r8, [pc, #40]	@ 8003690 <HAL_RCCEx_PeriphCLKConfig+0x4cc>
 800366a:	4607      	mov	r7, r0
 800366c:	f241 3988 	movw	r9, #5000	@ 0x1388
 8003670:	f8d8 3070 	ldr.w	r3, [r8, #112]	@ 0x70
 8003674:	0799      	lsls	r1, r3, #30
 8003676:	d4b2      	bmi.n	80035de <HAL_RCCEx_PeriphCLKConfig+0x41a>
 8003678:	f7fe f8a2 	bl	80017c0 <HAL_GetTick>
 800367c:	1bc0      	subs	r0, r0, r7
 800367e:	4548      	cmp	r0, r9
 8003680:	d9f6      	bls.n	8003670 <HAL_RCCEx_PeriphCLKConfig+0x4ac>
 8003682:	e7d4      	b.n	800362e <HAL_RCCEx_PeriphCLKConfig+0x46a>
 8003684:	690a      	ldr	r2, [r1, #16]
 8003686:	f422 527c 	bic.w	r2, r2, #16128	@ 0x3f00
 800368a:	e7b7      	b.n	80035fc <HAL_RCCEx_PeriphCLKConfig+0x438>
 800368c:	4626      	mov	r6, r4
 800368e:	e7d0      	b.n	8003632 <HAL_RCCEx_PeriphCLKConfig+0x46e>
 8003690:	58024400 	.word	0x58024400
 8003694:	58024800 	.word	0x58024800
 8003698:	00ffffcf 	.word	0x00ffffcf
 800369c:	f023 0208 	bic.w	r2, r3, #8
 80036a0:	2a20      	cmp	r2, #32
 80036a2:	d001      	beq.n	80036a8 <HAL_RCCEx_PeriphCLKConfig+0x4e4>
 80036a4:	2b18      	cmp	r3, #24
 80036a6:	d1cf      	bne.n	8003648 <HAL_RCCEx_PeriphCLKConfig+0x484>
 80036a8:	b99c      	cbnz	r4, 80036d2 <HAL_RCCEx_PeriphCLKConfig+0x50e>
 80036aa:	4aa9      	ldr	r2, [pc, #676]	@ (8003950 <HAL_RCCEx_PeriphCLKConfig+0x78c>)
 80036ac:	6fa9      	ldr	r1, [r5, #120]	@ 0x78
 80036ae:	6d53      	ldr	r3, [r2, #84]	@ 0x54
 80036b0:	f023 0338 	bic.w	r3, r3, #56	@ 0x38
 80036b4:	430b      	orrs	r3, r1
 80036b6:	6553      	str	r3, [r2, #84]	@ 0x54
 80036b8:	e7c8      	b.n	800364c <HAL_RCCEx_PeriphCLKConfig+0x488>
 80036ba:	2101      	movs	r1, #1
 80036bc:	1d28      	adds	r0, r5, #4
 80036be:	f7ff fc95 	bl	8002fec <RCCEx_PLL2_Config>
 80036c2:	4604      	mov	r4, r0
 80036c4:	e7f0      	b.n	80036a8 <HAL_RCCEx_PeriphCLKConfig+0x4e4>
 80036c6:	2101      	movs	r1, #1
 80036c8:	f105 0024 	add.w	r0, r5, #36	@ 0x24
 80036cc:	f7ff fd04 	bl	80030d8 <RCCEx_PLL3_Config>
 80036d0:	e7f7      	b.n	80036c2 <HAL_RCCEx_PeriphCLKConfig+0x4fe>
 80036d2:	4626      	mov	r6, r4
 80036d4:	e7ba      	b.n	800364c <HAL_RCCEx_PeriphCLKConfig+0x488>
 80036d6:	2101      	movs	r1, #1
 80036d8:	1d28      	adds	r0, r5, #4
 80036da:	f7ff fc87 	bl	8002fec <RCCEx_PLL2_Config>
 80036de:	4604      	mov	r4, r0
 80036e0:	b9fc      	cbnz	r4, 8003722 <HAL_RCCEx_PeriphCLKConfig+0x55e>
 80036e2:	4a9b      	ldr	r2, [pc, #620]	@ (8003950 <HAL_RCCEx_PeriphCLKConfig+0x78c>)
 80036e4:	6f69      	ldr	r1, [r5, #116]	@ 0x74
 80036e6:	6d53      	ldr	r3, [r2, #84]	@ 0x54
 80036e8:	f023 0307 	bic.w	r3, r3, #7
 80036ec:	430b      	orrs	r3, r1
 80036ee:	6553      	str	r3, [r2, #84]	@ 0x54
 80036f0:	682b      	ldr	r3, [r5, #0]
 80036f2:	075f      	lsls	r7, r3, #29
 80036f4:	d527      	bpl.n	8003746 <HAL_RCCEx_PeriphCLKConfig+0x582>
 80036f6:	f8d5 3090 	ldr.w	r3, [r5, #144]	@ 0x90
 80036fa:	2b05      	cmp	r3, #5
 80036fc:	f200 8123 	bhi.w	8003946 <HAL_RCCEx_PeriphCLKConfig+0x782>
 8003700:	e8df f013 	tbh	[pc, r3, lsl #1]
 8003704:	00110016 	.word	0x00110016
 8003708:	0016011b 	.word	0x0016011b
 800370c:	00160016 	.word	0x00160016
 8003710:	2101      	movs	r1, #1
 8003712:	f105 0024 	add.w	r0, r5, #36	@ 0x24
 8003716:	f7ff fcdf 	bl	80030d8 <RCCEx_PLL3_Config>
 800371a:	e7e0      	b.n	80036de <HAL_RCCEx_PeriphCLKConfig+0x51a>
 800371c:	2601      	movs	r6, #1
 800371e:	4634      	mov	r4, r6
 8003720:	e7e6      	b.n	80036f0 <HAL_RCCEx_PeriphCLKConfig+0x52c>
 8003722:	4626      	mov	r6, r4
 8003724:	e7e4      	b.n	80036f0 <HAL_RCCEx_PeriphCLKConfig+0x52c>
 8003726:	2101      	movs	r1, #1
 8003728:	1d28      	adds	r0, r5, #4
 800372a:	f7ff fc5f 	bl	8002fec <RCCEx_PLL2_Config>
 800372e:	4604      	mov	r4, r0
 8003730:	2c00      	cmp	r4, #0
 8003732:	f040 810b 	bne.w	800394c <HAL_RCCEx_PeriphCLKConfig+0x788>
 8003736:	4a86      	ldr	r2, [pc, #536]	@ (8003950 <HAL_RCCEx_PeriphCLKConfig+0x78c>)
 8003738:	f8d5 1090 	ldr.w	r1, [r5, #144]	@ 0x90
 800373c:	6d93      	ldr	r3, [r2, #88]	@ 0x58
 800373e:	f023 0307 	bic.w	r3, r3, #7
 8003742:	430b      	orrs	r3, r1
 8003744:	6593      	str	r3, [r2, #88]	@ 0x58
 8003746:	682b      	ldr	r3, [r5, #0]
 8003748:	0698      	lsls	r0, r3, #26
 800374a:	d510      	bpl.n	800376e <HAL_RCCEx_PeriphCLKConfig+0x5aa>
 800374c:	f8d5 308c 	ldr.w	r3, [r5, #140]	@ 0x8c
 8003750:	f1b3 5f00 	cmp.w	r3, #536870912	@ 0x20000000
 8003754:	f000 8117 	beq.w	8003986 <HAL_RCCEx_PeriphCLKConfig+0x7c2>
 8003758:	f200 80fc 	bhi.w	8003954 <HAL_RCCEx_PeriphCLKConfig+0x790>
 800375c:	2b00      	cmp	r3, #0
 800375e:	f000 8102 	beq.w	8003966 <HAL_RCCEx_PeriphCLKConfig+0x7a2>
 8003762:	f1b3 5f80 	cmp.w	r3, #268435456	@ 0x10000000
 8003766:	f000 8108 	beq.w	800397a <HAL_RCCEx_PeriphCLKConfig+0x7b6>
 800376a:	2601      	movs	r6, #1
 800376c:	4634      	mov	r4, r6
 800376e:	682b      	ldr	r3, [r5, #0]
 8003770:	0659      	lsls	r1, r3, #25
 8003772:	d510      	bpl.n	8003796 <HAL_RCCEx_PeriphCLKConfig+0x5d2>
 8003774:	f8d5 3098 	ldr.w	r3, [r5, #152]	@ 0x98
 8003778:	f5b3 6f00 	cmp.w	r3, #2048	@ 0x800
 800377c:	f000 8124 	beq.w	80039c8 <HAL_RCCEx_PeriphCLKConfig+0x804>
 8003780:	f200 8109 	bhi.w	8003996 <HAL_RCCEx_PeriphCLKConfig+0x7d2>
 8003784:	2b00      	cmp	r3, #0
 8003786:	f000 810f 	beq.w	80039a8 <HAL_RCCEx_PeriphCLKConfig+0x7e4>
 800378a:	f5b3 6f80 	cmp.w	r3, #1024	@ 0x400
 800378e:	f000 8115 	beq.w	80039bc <HAL_RCCEx_PeriphCLKConfig+0x7f8>
 8003792:	2601      	movs	r6, #1
 8003794:	4634      	mov	r4, r6
 8003796:	682b      	ldr	r3, [r5, #0]
 8003798:	061a      	lsls	r2, r3, #24
 800379a:	d510      	bpl.n	80037be <HAL_RCCEx_PeriphCLKConfig+0x5fa>
 800379c:	f8d5 309c 	ldr.w	r3, [r5, #156]	@ 0x9c
 80037a0:	f5b3 4f80 	cmp.w	r3, #16384	@ 0x4000
 80037a4:	f000 8131 	beq.w	8003a0a <HAL_RCCEx_PeriphCLKConfig+0x846>
 80037a8:	f200 8116 	bhi.w	80039d8 <HAL_RCCEx_PeriphCLKConfig+0x814>
 80037ac:	2b00      	cmp	r3, #0
 80037ae:	f000 811c 	beq.w	80039ea <HAL_RCCEx_PeriphCLKConfig+0x826>
 80037b2:	f5b3 5f00 	cmp.w	r3, #8192	@ 0x2000
 80037b6:	f000 8122 	beq.w	80039fe <HAL_RCCEx_PeriphCLKConfig+0x83a>
 80037ba:	2601      	movs	r6, #1
 80037bc:	4634      	mov	r4, r6
 80037be:	682b      	ldr	r3, [r5, #0]
 80037c0:	071b      	lsls	r3, r3, #28
 80037c2:	d514      	bpl.n	80037ee <HAL_RCCEx_PeriphCLKConfig+0x62a>
 80037c4:	f8d5 3080 	ldr.w	r3, [r5, #128]	@ 0x80
 80037c8:	f5b3 5f80 	cmp.w	r3, #4096	@ 0x1000
 80037cc:	d107      	bne.n	80037de <HAL_RCCEx_PeriphCLKConfig+0x61a>
 80037ce:	2102      	movs	r1, #2
 80037d0:	f105 0024 	add.w	r0, r5, #36	@ 0x24
 80037d4:	f7ff fc80 	bl	80030d8 <RCCEx_PLL3_Config>
 80037d8:	2800      	cmp	r0, #0
 80037da:	bf18      	it	ne
 80037dc:	2601      	movne	r6, #1
 80037de:	4a5c      	ldr	r2, [pc, #368]	@ (8003950 <HAL_RCCEx_PeriphCLKConfig+0x78c>)
 80037e0:	f8d5 1080 	ldr.w	r1, [r5, #128]	@ 0x80
 80037e4:	6d53      	ldr	r3, [r2, #84]	@ 0x54
 80037e6:	f423 5340 	bic.w	r3, r3, #12288	@ 0x3000
 80037ea:	430b      	orrs	r3, r1
 80037ec:	6553      	str	r3, [r2, #84]	@ 0x54
 80037ee:	682b      	ldr	r3, [r5, #0]
 80037f0:	06df      	lsls	r7, r3, #27
 80037f2:	d514      	bpl.n	800381e <HAL_RCCEx_PeriphCLKConfig+0x65a>
 80037f4:	f8d5 3094 	ldr.w	r3, [r5, #148]	@ 0x94
 80037f8:	f5b3 7f80 	cmp.w	r3, #256	@ 0x100
 80037fc:	d107      	bne.n	800380e <HAL_RCCEx_PeriphCLKConfig+0x64a>
 80037fe:	2102      	movs	r1, #2
 8003800:	f105 0024 	add.w	r0, r5, #36	@ 0x24
 8003804:	f7ff fc68 	bl	80030d8 <RCCEx_PLL3_Config>
 8003808:	2800      	cmp	r0, #0
 800380a:	bf18      	it	ne
 800380c:	2601      	movne	r6, #1
 800380e:	4a50      	ldr	r2, [pc, #320]	@ (8003950 <HAL_RCCEx_PeriphCLKConfig+0x78c>)
 8003810:	f8d5 1094 	ldr.w	r1, [r5, #148]	@ 0x94
 8003814:	6d93      	ldr	r3, [r2, #88]	@ 0x58
 8003816:	f423 7340 	bic.w	r3, r3, #768	@ 0x300
 800381a:	430b      	orrs	r3, r1
 800381c:	6593      	str	r3, [r2, #88]	@ 0x58
 800381e:	682b      	ldr	r3, [r5, #0]
 8003820:	0318      	lsls	r0, r3, #12
 8003822:	d51a      	bpl.n	800385a <HAL_RCCEx_PeriphCLKConfig+0x696>
 8003824:	f8d5 10a0 	ldr.w	r1, [r5, #160]	@ 0xa0
 8003828:	f5b1 3f80 	cmp.w	r1, #65536	@ 0x10000
 800382c:	f000 80f5 	beq.w	8003a1a <HAL_RCCEx_PeriphCLKConfig+0x856>
 8003830:	f5b1 3f00 	cmp.w	r1, #131072	@ 0x20000
 8003834:	d006      	beq.n	8003844 <HAL_RCCEx_PeriphCLKConfig+0x680>
 8003836:	2900      	cmp	r1, #0
 8003838:	f040 80f5 	bne.w	8003a26 <HAL_RCCEx_PeriphCLKConfig+0x862>
 800383c:	1d28      	adds	r0, r5, #4
 800383e:	f7ff fbd5 	bl	8002fec <RCCEx_PLL2_Config>
 8003842:	4604      	mov	r4, r0
 8003844:	2c00      	cmp	r4, #0
 8003846:	f040 80f1 	bne.w	8003a2c <HAL_RCCEx_PeriphCLKConfig+0x868>
 800384a:	4a41      	ldr	r2, [pc, #260]	@ (8003950 <HAL_RCCEx_PeriphCLKConfig+0x78c>)
 800384c:	f8d5 10a0 	ldr.w	r1, [r5, #160]	@ 0xa0
 8003850:	6d93      	ldr	r3, [r2, #88]	@ 0x58
 8003852:	f423 3340 	bic.w	r3, r3, #196608	@ 0x30000
 8003856:	430b      	orrs	r3, r1
 8003858:	6593      	str	r3, [r2, #88]	@ 0x58
 800385a:	682b      	ldr	r3, [r5, #0]
 800385c:	0359      	lsls	r1, r3, #13
 800385e:	d50f      	bpl.n	8003880 <HAL_RCCEx_PeriphCLKConfig+0x6bc>
 8003860:	f8d5 3084 	ldr.w	r3, [r5, #132]	@ 0x84
 8003864:	f5b3 1f00 	cmp.w	r3, #2097152	@ 0x200000
 8003868:	f000 80f1 	beq.w	8003a4e <HAL_RCCEx_PeriphCLKConfig+0x88a>
 800386c:	f5b3 1f40 	cmp.w	r3, #3145728	@ 0x300000
 8003870:	f000 80e3 	beq.w	8003a3a <HAL_RCCEx_PeriphCLKConfig+0x876>
 8003874:	f5b3 1f80 	cmp.w	r3, #1048576	@ 0x100000
 8003878:	f000 80da 	beq.w	8003a30 <HAL_RCCEx_PeriphCLKConfig+0x86c>
 800387c:	2601      	movs	r6, #1
 800387e:	4634      	mov	r4, r6
 8003880:	682b      	ldr	r3, [r5, #0]
 8003882:	03da      	lsls	r2, r3, #15
 8003884:	d509      	bpl.n	800389a <HAL_RCCEx_PeriphCLKConfig+0x6d6>
 8003886:	6ceb      	ldr	r3, [r5, #76]	@ 0x4c
 8003888:	2b00      	cmp	r3, #0
 800388a:	f000 80e9 	beq.w	8003a60 <HAL_RCCEx_PeriphCLKConfig+0x89c>
 800388e:	f5b3 3f80 	cmp.w	r3, #65536	@ 0x10000
 8003892:	f000 80f3 	beq.w	8003a7c <HAL_RCCEx_PeriphCLKConfig+0x8b8>
 8003896:	2601      	movs	r6, #1
 8003898:	4634      	mov	r4, r6
 800389a:	682b      	ldr	r3, [r5, #0]
 800389c:	009b      	lsls	r3, r3, #2
 800389e:	d507      	bpl.n	80038b0 <HAL_RCCEx_PeriphCLKConfig+0x6ec>
 80038a0:	2102      	movs	r1, #2
 80038a2:	f105 0024 	add.w	r0, r5, #36	@ 0x24
 80038a6:	f7ff fc17 	bl	80030d8 <RCCEx_PLL3_Config>
 80038aa:	2800      	cmp	r0, #0
 80038ac:	bf18      	it	ne
 80038ae:	2601      	movne	r6, #1
 80038b0:	682b      	ldr	r3, [r5, #0]
 80038b2:	039f      	lsls	r7, r3, #14
 80038b4:	f140 80f9 	bpl.w	8003aaa <HAL_RCCEx_PeriphCLKConfig+0x8e6>
 80038b8:	6fe9      	ldr	r1, [r5, #124]	@ 0x7c
 80038ba:	f5b1 7f80 	cmp.w	r1, #256	@ 0x100
 80038be:	f000 80f6 	beq.w	8003aae <HAL_RCCEx_PeriphCLKConfig+0x8ea>
 80038c2:	f200 80e3 	bhi.w	8003a8c <HAL_RCCEx_PeriphCLKConfig+0x8c8>
 80038c6:	2900      	cmp	r1, #0
 80038c8:	f000 80e6 	beq.w	8003a98 <HAL_RCCEx_PeriphCLKConfig+0x8d4>
 80038cc:	2401      	movs	r4, #1
 80038ce:	02de      	lsls	r6, r3, #11
 80038d0:	d506      	bpl.n	80038e0 <HAL_RCCEx_PeriphCLKConfig+0x71c>
 80038d2:	491f      	ldr	r1, [pc, #124]	@ (8003950 <HAL_RCCEx_PeriphCLKConfig+0x78c>)
 80038d4:	6f28      	ldr	r0, [r5, #112]	@ 0x70
 80038d6:	6d0a      	ldr	r2, [r1, #80]	@ 0x50
 80038d8:	f022 4200 	bic.w	r2, r2, #2147483648	@ 0x80000000
 80038dc:	4302      	orrs	r2, r0
 80038de:	650a      	str	r2, [r1, #80]	@ 0x50
 80038e0:	00d8      	lsls	r0, r3, #3
 80038e2:	d507      	bpl.n	80038f4 <HAL_RCCEx_PeriphCLKConfig+0x730>
 80038e4:	491a      	ldr	r1, [pc, #104]	@ (8003950 <HAL_RCCEx_PeriphCLKConfig+0x78c>)
 80038e6:	f8d5 00b4 	ldr.w	r0, [r5, #180]	@ 0xb4
 80038ea:	690a      	ldr	r2, [r1, #16]
 80038ec:	f422 4280 	bic.w	r2, r2, #16384	@ 0x4000
 80038f0:	4302      	orrs	r2, r0
 80038f2:	610a      	str	r2, [r1, #16]
 80038f4:	0299      	lsls	r1, r3, #10
 80038f6:	d506      	bpl.n	8003906 <HAL_RCCEx_PeriphCLKConfig+0x742>
 80038f8:	4915      	ldr	r1, [pc, #84]	@ (8003950 <HAL_RCCEx_PeriphCLKConfig+0x78c>)
 80038fa:	6ea8      	ldr	r0, [r5, #104]	@ 0x68
 80038fc:	6d0a      	ldr	r2, [r1, #80]	@ 0x50
 80038fe:	f022 7280 	bic.w	r2, r2, #16777216	@ 0x1000000
 8003902:	4302      	orrs	r2, r0
 8003904:	650a      	str	r2, [r1, #80]	@ 0x50
 8003906:	005a      	lsls	r2, r3, #1
 8003908:	d509      	bpl.n	800391e <HAL_RCCEx_PeriphCLKConfig+0x75a>
 800390a:	4a11      	ldr	r2, [pc, #68]	@ (8003950 <HAL_RCCEx_PeriphCLKConfig+0x78c>)
 800390c:	6911      	ldr	r1, [r2, #16]
 800390e:	f421 4100 	bic.w	r1, r1, #32768	@ 0x8000
 8003912:	6111      	str	r1, [r2, #16]
 8003914:	6911      	ldr	r1, [r2, #16]
 8003916:	f8d5 00b8 	ldr.w	r0, [r5, #184]	@ 0xb8
 800391a:	4301      	orrs	r1, r0
 800391c:	6111      	str	r1, [r2, #16]
 800391e:	2b00      	cmp	r3, #0
 8003920:	da06      	bge.n	8003930 <HAL_RCCEx_PeriphCLKConfig+0x76c>
 8003922:	4a0b      	ldr	r2, [pc, #44]	@ (8003950 <HAL_RCCEx_PeriphCLKConfig+0x78c>)
 8003924:	6d29      	ldr	r1, [r5, #80]	@ 0x50
 8003926:	6cd3      	ldr	r3, [r2, #76]	@ 0x4c
 8003928:	f023 5340 	bic.w	r3, r3, #805306368	@ 0x30000000
 800392c:	430b      	orrs	r3, r1
 800392e:	64d3      	str	r3, [r2, #76]	@ 0x4c
 8003930:	1e20      	subs	r0, r4, #0
 8003932:	bf18      	it	ne
 8003934:	2001      	movne	r0, #1
 8003936:	e8bd 83f8 	ldmia.w	sp!, {r3, r4, r5, r6, r7, r8, r9, pc}
 800393a:	2101      	movs	r1, #1
 800393c:	f105 0024 	add.w	r0, r5, #36	@ 0x24
 8003940:	f7ff fbca 	bl	80030d8 <RCCEx_PLL3_Config>
 8003944:	e6f3      	b.n	800372e <HAL_RCCEx_PeriphCLKConfig+0x56a>
 8003946:	2601      	movs	r6, #1
 8003948:	4634      	mov	r4, r6
 800394a:	e6fc      	b.n	8003746 <HAL_RCCEx_PeriphCLKConfig+0x582>
 800394c:	4626      	mov	r6, r4
 800394e:	e6fa      	b.n	8003746 <HAL_RCCEx_PeriphCLKConfig+0x582>
 8003950:	58024400 	.word	0x58024400
 8003954:	f023 5280 	bic.w	r2, r3, #268435456	@ 0x10000000
 8003958:	f1b2 4f80 	cmp.w	r2, #1073741824	@ 0x40000000
 800395c:	d003      	beq.n	8003966 <HAL_RCCEx_PeriphCLKConfig+0x7a2>
 800395e:	f1b3 5f40 	cmp.w	r3, #805306368	@ 0x30000000
 8003962:	f47f af02 	bne.w	800376a <HAL_RCCEx_PeriphCLKConfig+0x5a6>
 8003966:	b9a4      	cbnz	r4, 8003992 <HAL_RCCEx_PeriphCLKConfig+0x7ce>
 8003968:	4a54      	ldr	r2, [pc, #336]	@ (8003abc <HAL_RCCEx_PeriphCLKConfig+0x8f8>)
 800396a:	f8d5 108c 	ldr.w	r1, [r5, #140]	@ 0x8c
 800396e:	6d53      	ldr	r3, [r2, #84]	@ 0x54
 8003970:	f023 43e0 	bic.w	r3, r3, #1879048192	@ 0x70000000
 8003974:	430b      	orrs	r3, r1
 8003976:	6553      	str	r3, [r2, #84]	@ 0x54
 8003978:	e6f9      	b.n	800376e <HAL_RCCEx_PeriphCLKConfig+0x5aa>
 800397a:	2100      	movs	r1, #0
 800397c:	1d28      	adds	r0, r5, #4
 800397e:	f7ff fb35 	bl	8002fec <RCCEx_PLL2_Config>
 8003982:	4604      	mov	r4, r0
 8003984:	e7ef      	b.n	8003966 <HAL_RCCEx_PeriphCLKConfig+0x7a2>
 8003986:	2102      	movs	r1, #2
 8003988:	f105 0024 	add.w	r0, r5, #36	@ 0x24
 800398c:	f7ff fba4 	bl	80030d8 <RCCEx_PLL3_Config>
 8003990:	e7f7      	b.n	8003982 <HAL_RCCEx_PeriphCLKConfig+0x7be>
 8003992:	4626      	mov	r6, r4
 8003994:	e6eb      	b.n	800376e <HAL_RCCEx_PeriphCLKConfig+0x5aa>
 8003996:	f423 6280 	bic.w	r2, r3, #1024	@ 0x400
 800399a:	f5b2 5f80 	cmp.w	r2, #4096	@ 0x1000
 800399e:	d003      	beq.n	80039a8 <HAL_RCCEx_PeriphCLKConfig+0x7e4>
 80039a0:	f5b3 6f40 	cmp.w	r3, #3072	@ 0xc00
 80039a4:	f47f aef5 	bne.w	8003792 <HAL_RCCEx_PeriphCLKConfig+0x5ce>
 80039a8:	b9a4      	cbnz	r4, 80039d4 <HAL_RCCEx_PeriphCLKConfig+0x810>
 80039aa:	4a44      	ldr	r2, [pc, #272]	@ (8003abc <HAL_RCCEx_PeriphCLKConfig+0x8f8>)
 80039ac:	f8d5 1098 	ldr.w	r1, [r5, #152]	@ 0x98
 80039b0:	6d93      	ldr	r3, [r2, #88]	@ 0x58
 80039b2:	f423 53e0 	bic.w	r3, r3, #7168	@ 0x1c00
 80039b6:	430b      	orrs	r3, r1
 80039b8:	6593      	str	r3, [r2, #88]	@ 0x58
 80039ba:	e6ec      	b.n	8003796 <HAL_RCCEx_PeriphCLKConfig+0x5d2>
 80039bc:	2100      	movs	r1, #0
 80039be:	1d28      	adds	r0, r5, #4
 80039c0:	f7ff fb14 	bl	8002fec <RCCEx_PLL2_Config>
 80039c4:	4604      	mov	r4, r0
 80039c6:	e7ef      	b.n	80039a8 <HAL_RCCEx_PeriphCLKConfig+0x7e4>
 80039c8:	2102      	movs	r1, #2
 80039ca:	f105 0024 	add.w	r0, r5, #36	@ 0x24
 80039ce:	f7ff fb83 	bl	80030d8 <RCCEx_PLL3_Config>
 80039d2:	e7f7      	b.n	80039c4 <HAL_RCCEx_PeriphCLKConfig+0x800>
 80039d4:	4626      	mov	r6, r4
 80039d6:	e6de      	b.n	8003796 <HAL_RCCEx_PeriphCLKConfig+0x5d2>
 80039d8:	f423 5200 	bic.w	r2, r3, #8192	@ 0x2000
 80039dc:	f5b2 4f00 	cmp.w	r2, #32768	@ 0x8000
 80039e0:	d003      	beq.n	80039ea <HAL_RCCEx_PeriphCLKConfig+0x826>
 80039e2:	f5b3 4fc0 	cmp.w	r3, #24576	@ 0x6000
 80039e6:	f47f aee8 	bne.w	80037ba <HAL_RCCEx_PeriphCLKConfig+0x5f6>
 80039ea:	b9a4      	cbnz	r4, 8003a16 <HAL_RCCEx_PeriphCLKConfig+0x852>
 80039ec:	4a33      	ldr	r2, [pc, #204]	@ (8003abc <HAL_RCCEx_PeriphCLKConfig+0x8f8>)
 80039ee:	f8d5 109c 	ldr.w	r1, [r5, #156]	@ 0x9c
 80039f2:	6d93      	ldr	r3, [r2, #88]	@ 0x58
 80039f4:	f423 4360 	bic.w	r3, r3, #57344	@ 0xe000
 80039f8:	430b      	orrs	r3, r1
 80039fa:	6593      	str	r3, [r2, #88]	@ 0x58
 80039fc:	e6df      	b.n	80037be <HAL_RCCEx_PeriphCLKConfig+0x5fa>
 80039fe:	2100      	movs	r1, #0
 8003a00:	1d28      	adds	r0, r5, #4
 8003a02:	f7ff faf3 	bl	8002fec <RCCEx_PLL2_Config>
 8003a06:	4604      	mov	r4, r0
 8003a08:	e7ef      	b.n	80039ea <HAL_RCCEx_PeriphCLKConfig+0x826>
 8003a0a:	2102      	movs	r1, #2
 8003a0c:	f105 0024 	add.w	r0, r5, #36	@ 0x24
 8003a10:	f7ff fb62 	bl	80030d8 <RCCEx_PLL3_Config>
 8003a14:	e7f7      	b.n	8003a06 <HAL_RCCEx_PeriphCLKConfig+0x842>
 8003a16:	4626      	mov	r6, r4
 8003a18:	e6d1      	b.n	80037be <HAL_RCCEx_PeriphCLKConfig+0x5fa>
 8003a1a:	2102      	movs	r1, #2
 8003a1c:	f105 0024 	add.w	r0, r5, #36	@ 0x24
 8003a20:	f7ff fb5a 	bl	80030d8 <RCCEx_PLL3_Config>
 8003a24:	e70d      	b.n	8003842 <HAL_RCCEx_PeriphCLKConfig+0x67e>
 8003a26:	2601      	movs	r6, #1
 8003a28:	4634      	mov	r4, r6
 8003a2a:	e716      	b.n	800385a <HAL_RCCEx_PeriphCLKConfig+0x696>
 8003a2c:	4626      	mov	r6, r4
 8003a2e:	e714      	b.n	800385a <HAL_RCCEx_PeriphCLKConfig+0x696>
 8003a30:	4a22      	ldr	r2, [pc, #136]	@ (8003abc <HAL_RCCEx_PeriphCLKConfig+0x8f8>)
 8003a32:	6ad3      	ldr	r3, [r2, #44]	@ 0x2c
 8003a34:	f443 3300 	orr.w	r3, r3, #131072	@ 0x20000
 8003a38:	62d3      	str	r3, [r2, #44]	@ 0x2c
 8003a3a:	b97c      	cbnz	r4, 8003a5c <HAL_RCCEx_PeriphCLKConfig+0x898>
 8003a3c:	4a1f      	ldr	r2, [pc, #124]	@ (8003abc <HAL_RCCEx_PeriphCLKConfig+0x8f8>)
 8003a3e:	f8d5 1084 	ldr.w	r1, [r5, #132]	@ 0x84
 8003a42:	6d53      	ldr	r3, [r2, #84]	@ 0x54
 8003a44:	f423 1340 	bic.w	r3, r3, #3145728	@ 0x300000
 8003a48:	430b      	orrs	r3, r1
 8003a4a:	6553      	str	r3, [r2, #84]	@ 0x54
 8003a4c:	e718      	b.n	8003880 <HAL_RCCEx_PeriphCLKConfig+0x6bc>
 8003a4e:	2101      	movs	r1, #1
 8003a50:	f105 0024 	add.w	r0, r5, #36	@ 0x24
 8003a54:	f7ff fb40 	bl	80030d8 <RCCEx_PLL3_Config>
 8003a58:	4604      	mov	r4, r0
 8003a5a:	e7ee      	b.n	8003a3a <HAL_RCCEx_PeriphCLKConfig+0x876>
 8003a5c:	4626      	mov	r6, r4
 8003a5e:	e70f      	b.n	8003880 <HAL_RCCEx_PeriphCLKConfig+0x6bc>
 8003a60:	4a16      	ldr	r2, [pc, #88]	@ (8003abc <HAL_RCCEx_PeriphCLKConfig+0x8f8>)
 8003a62:	6ad3      	ldr	r3, [r2, #44]	@ 0x2c
 8003a64:	f443 3300 	orr.w	r3, r3, #131072	@ 0x20000
 8003a68:	62d3      	str	r3, [r2, #44]	@ 0x2c
 8003a6a:	b96c      	cbnz	r4, 8003a88 <HAL_RCCEx_PeriphCLKConfig+0x8c4>
 8003a6c:	4a13      	ldr	r2, [pc, #76]	@ (8003abc <HAL_RCCEx_PeriphCLKConfig+0x8f8>)
 8003a6e:	6ce9      	ldr	r1, [r5, #76]	@ 0x4c
 8003a70:	6cd3      	ldr	r3, [r2, #76]	@ 0x4c
 8003a72:	f423 3380 	bic.w	r3, r3, #65536	@ 0x10000
 8003a76:	430b      	orrs	r3, r1
 8003a78:	64d3      	str	r3, [r2, #76]	@ 0x4c
 8003a7a:	e70e      	b.n	800389a <HAL_RCCEx_PeriphCLKConfig+0x6d6>
 8003a7c:	2102      	movs	r1, #2
 8003a7e:	1d28      	adds	r0, r5, #4
 8003a80:	f7ff fab4 	bl	8002fec <RCCEx_PLL2_Config>
 8003a84:	4604      	mov	r4, r0
 8003a86:	e7f0      	b.n	8003a6a <HAL_RCCEx_PeriphCLKConfig+0x8a6>
 8003a88:	4626      	mov	r6, r4
 8003a8a:	e706      	b.n	800389a <HAL_RCCEx_PeriphCLKConfig+0x6d6>
 8003a8c:	f421 7280 	bic.w	r2, r1, #256	@ 0x100
 8003a90:	f5b2 7f00 	cmp.w	r2, #512	@ 0x200
 8003a94:	f47f af1a 	bne.w	80038cc <HAL_RCCEx_PeriphCLKConfig+0x708>
 8003a98:	2c00      	cmp	r4, #0
 8003a9a:	f47f af18 	bne.w	80038ce <HAL_RCCEx_PeriphCLKConfig+0x70a>
 8003a9e:	4807      	ldr	r0, [pc, #28]	@ (8003abc <HAL_RCCEx_PeriphCLKConfig+0x8f8>)
 8003aa0:	6d42      	ldr	r2, [r0, #84]	@ 0x54
 8003aa2:	f422 7240 	bic.w	r2, r2, #768	@ 0x300
 8003aa6:	430a      	orrs	r2, r1
 8003aa8:	6542      	str	r2, [r0, #84]	@ 0x54
 8003aaa:	4634      	mov	r4, r6
 8003aac:	e70f      	b.n	80038ce <HAL_RCCEx_PeriphCLKConfig+0x70a>
 8003aae:	4803      	ldr	r0, [pc, #12]	@ (8003abc <HAL_RCCEx_PeriphCLKConfig+0x8f8>)
 8003ab0:	6ac2      	ldr	r2, [r0, #44]	@ 0x2c
 8003ab2:	f442 3200 	orr.w	r2, r2, #131072	@ 0x20000
 8003ab6:	62c2      	str	r2, [r0, #44]	@ 0x2c
 8003ab8:	e7ee      	b.n	8003a98 <HAL_RCCEx_PeriphCLKConfig+0x8d4>
 8003aba:	bf00      	nop
 8003abc:	58024400 	.word	0x58024400

08003ac0 <HAL_RCCEx_GetD3PCLK1Freq>:
 8003ac0:	b508      	push	{r3, lr}
 8003ac2:	f7ff fa4d 	bl	8002f60 <HAL_RCC_GetHCLKFreq>
 8003ac6:	4b05      	ldr	r3, [pc, #20]	@ (8003adc <HAL_RCCEx_GetD3PCLK1Freq+0x1c>)
 8003ac8:	4a05      	ldr	r2, [pc, #20]	@ (8003ae0 <HAL_RCCEx_GetD3PCLK1Freq+0x20>)
 8003aca:	6a1b      	ldr	r3, [r3, #32]
 8003acc:	f3c3 1302 	ubfx	r3, r3, #4, #3
 8003ad0:	5cd3      	ldrb	r3, [r2, r3]
 8003ad2:	f003 031f 	and.w	r3, r3, #31
 8003ad6:	40d8      	lsrs	r0, r3
 8003ad8:	bd08      	pop	{r3, pc}
 8003ada:	bf00      	nop
 8003adc:	58024400 	.word	0x58024400
 8003ae0:	08005078 	.word	0x08005078

08003ae4 <HAL_RCCEx_GetPLL2ClockFreq>:
 8003ae4:	494f      	ldr	r1, [pc, #316]	@ (8003c24 <HAL_RCCEx_GetPLL2ClockFreq+0x140>)
 8003ae6:	b570      	push	{r4, r5, r6, lr}
 8003ae8:	6a8c      	ldr	r4, [r1, #40]	@ 0x28
 8003aea:	6a8e      	ldr	r6, [r1, #40]	@ 0x28
 8003aec:	6acd      	ldr	r5, [r1, #44]	@ 0x2c
 8003aee:	f416 3f7c 	tst.w	r6, #258048	@ 0x3f000
 8003af2:	f3c6 3305 	ubfx	r3, r6, #12, #6
 8003af6:	6bca      	ldr	r2, [r1, #60]	@ 0x3c
 8003af8:	f000 8090 	beq.w	8003c1c <HAL_RCCEx_GetPLL2ClockFreq+0x138>
 8003afc:	ee07 3a90 	vmov	s15, r3
 8003b00:	f3c2 03cc 	ubfx	r3, r2, #3, #13
 8003b04:	f3c5 1200 	ubfx	r2, r5, #4, #1
 8003b08:	f004 0403 	and.w	r4, r4, #3
 8003b0c:	eeb8 7ae7 	vcvt.f32.s32	s14, s15
 8003b10:	4353      	muls	r3, r2
 8003b12:	2c01      	cmp	r4, #1
 8003b14:	eeb7 6a00 	vmov.f32	s12, #112	@ 0x3f800000  1.0
 8003b18:	ee06 3a90 	vmov	s13, r3
 8003b1c:	eefa 6ae9 	vcvt.f32.s32	s13, s13, #13
 8003b20:	d06e      	beq.n	8003c00 <HAL_RCCEx_GetPLL2ClockFreq+0x11c>
 8003b22:	2c02      	cmp	r4, #2
 8003b24:	d05e      	beq.n	8003be4 <HAL_RCCEx_GetPLL2ClockFreq+0x100>
 8003b26:	2c00      	cmp	r4, #0
 8003b28:	d16a      	bne.n	8003c00 <HAL_RCCEx_GetPLL2ClockFreq+0x11c>
 8003b2a:	680b      	ldr	r3, [r1, #0]
 8003b2c:	069b      	lsls	r3, r3, #26
 8003b2e:	d547      	bpl.n	8003bc0 <HAL_RCCEx_GetPLL2ClockFreq+0xdc>
 8003b30:	680a      	ldr	r2, [r1, #0]
 8003b32:	6b8b      	ldr	r3, [r1, #56]	@ 0x38
 8003b34:	f3c2 01c1 	ubfx	r1, r2, #3, #2
 8003b38:	4a3b      	ldr	r2, [pc, #236]	@ (8003c28 <HAL_RCCEx_GetPLL2ClockFreq+0x144>)
 8003b3a:	f3c3 0308 	ubfx	r3, r3, #0, #9
 8003b3e:	40ca      	lsrs	r2, r1
 8003b40:	ee07 2a90 	vmov	s15, r2
 8003b44:	eef8 5ae7 	vcvt.f32.s32	s11, s15
 8003b48:	eec5 7a87 	vdiv.f32	s15, s11, s14
 8003b4c:	ee07 3a10 	vmov	s14, r3
 8003b50:	eeb8 7ac7 	vcvt.f32.s32	s14, s14
 8003b54:	ee37 7a26 	vadd.f32	s14, s14, s13
 8003b58:	ee37 7a06 	vadd.f32	s14, s14, s12
 8003b5c:	ee67 7a87 	vmul.f32	s15, s15, s14
 8003b60:	4a30      	ldr	r2, [pc, #192]	@ (8003c24 <HAL_RCCEx_GetPLL2ClockFreq+0x140>)
 8003b62:	6b93      	ldr	r3, [r2, #56]	@ 0x38
 8003b64:	f3c3 2346 	ubfx	r3, r3, #9, #7
 8003b68:	ee07 3a10 	vmov	s14, r3
 8003b6c:	eeb8 7ac7 	vcvt.f32.s32	s14, s14
 8003b70:	ee37 7a06 	vadd.f32	s14, s14, s12
 8003b74:	eec7 6a87 	vdiv.f32	s13, s15, s14
 8003b78:	eefc 6ae6 	vcvt.u32.f32	s13, s13
 8003b7c:	edc0 6a00 	vstr	s13, [r0]
 8003b80:	6b93      	ldr	r3, [r2, #56]	@ 0x38
 8003b82:	f3c3 4306 	ubfx	r3, r3, #16, #7
 8003b86:	ee07 3a10 	vmov	s14, r3
 8003b8a:	eeb8 7ac7 	vcvt.f32.s32	s14, s14
 8003b8e:	ee37 7a06 	vadd.f32	s14, s14, s12
 8003b92:	eec7 6a87 	vdiv.f32	s13, s15, s14
 8003b96:	eefc 6ae6 	vcvt.u32.f32	s13, s13
 8003b9a:	edc0 6a01 	vstr	s13, [r0, #4]
 8003b9e:	6b93      	ldr	r3, [r2, #56]	@ 0x38
 8003ba0:	f3c3 6306 	ubfx	r3, r3, #24, #7
 8003ba4:	ee06 3a90 	vmov	s13, r3
 8003ba8:	eef8 6ae6 	vcvt.f32.s32	s13, s13
 8003bac:	ee76 6a86 	vadd.f32	s13, s13, s12
 8003bb0:	ee87 7aa6 	vdiv.f32	s14, s15, s13
 8003bb4:	eefc 7ac7 	vcvt.u32.f32	s15, s14
 8003bb8:	ee17 3a90 	vmov	r3, s15
 8003bbc:	6083      	str	r3, [r0, #8]
 8003bbe:	bd70      	pop	{r4, r5, r6, pc}
 8003bc0:	6b8b      	ldr	r3, [r1, #56]	@ 0x38
 8003bc2:	eddf 5a1a 	vldr	s11, [pc, #104]	@ 8003c2c <HAL_RCCEx_GetPLL2ClockFreq+0x148>
 8003bc6:	f3c3 0308 	ubfx	r3, r3, #0, #9
 8003bca:	ee07 3a90 	vmov	s15, r3
 8003bce:	eef8 7ae7 	vcvt.f32.s32	s15, s15
 8003bd2:	ee77 7aa6 	vadd.f32	s15, s15, s13
 8003bd6:	ee77 7a86 	vadd.f32	s15, s15, s12
 8003bda:	eec5 6a87 	vdiv.f32	s13, s11, s14
 8003bde:	ee67 7aa6 	vmul.f32	s15, s15, s13
 8003be2:	e7bd      	b.n	8003b60 <HAL_RCCEx_GetPLL2ClockFreq+0x7c>
 8003be4:	6b8b      	ldr	r3, [r1, #56]	@ 0x38
 8003be6:	eddf 5a12 	vldr	s11, [pc, #72]	@ 8003c30 <HAL_RCCEx_GetPLL2ClockFreq+0x14c>
 8003bea:	f3c3 0308 	ubfx	r3, r3, #0, #9
 8003bee:	ee07 3a90 	vmov	s15, r3
 8003bf2:	eef8 7ae7 	vcvt.f32.s32	s15, s15
 8003bf6:	ee77 7aa6 	vadd.f32	s15, s15, s13
 8003bfa:	ee77 7a86 	vadd.f32	s15, s15, s12
 8003bfe:	e7ec      	b.n	8003bda <HAL_RCCEx_GetPLL2ClockFreq+0xf6>
 8003c00:	6b8b      	ldr	r3, [r1, #56]	@ 0x38
 8003c02:	eddf 5a0c 	vldr	s11, [pc, #48]	@ 8003c34 <HAL_RCCEx_GetPLL2ClockFreq+0x150>
 8003c06:	f3c3 0308 	ubfx	r3, r3, #0, #9
 8003c0a:	ee07 3a90 	vmov	s15, r3
 8003c0e:	eef8 7ae7 	vcvt.f32.s32	s15, s15
 8003c12:	ee77 7aa6 	vadd.f32	s15, s15, s13
 8003c16:	ee77 7a86 	vadd.f32	s15, s15, s12
 8003c1a:	e7de      	b.n	8003bda <HAL_RCCEx_GetPLL2ClockFreq+0xf6>
 8003c1c:	e9c0 3300 	strd	r3, r3, [r0]
 8003c20:	e7cc      	b.n	8003bbc <HAL_RCCEx_GetPLL2ClockFreq+0xd8>
 8003c22:	bf00      	nop
 8003c24:	58024400 	.word	0x58024400
 8003c28:	03d09000 	.word	0x03d09000
 8003c2c:	4c742400 	.word	0x4c742400
 8003c30:	4bbebc20 	.word	0x4bbebc20
 8003c34:	4a742400 	.word	0x4a742400

08003c38 <HAL_RCCEx_GetPLL3ClockFreq>:
 8003c38:	494f      	ldr	r1, [pc, #316]	@ (8003d78 <HAL_RCCEx_GetPLL3ClockFreq+0x140>)
 8003c3a:	b570      	push	{r4, r5, r6, lr}
 8003c3c:	6a8c      	ldr	r4, [r1, #40]	@ 0x28
 8003c3e:	6a8e      	ldr	r6, [r1, #40]	@ 0x28
 8003c40:	6acd      	ldr	r5, [r1, #44]	@ 0x2c
 8003c42:	f016 7f7c 	tst.w	r6, #66060288	@ 0x3f00000
 8003c46:	f3c6 5305 	ubfx	r3, r6, #20, #6
 8003c4a:	6c4a      	ldr	r2, [r1, #68]	@ 0x44
 8003c4c:	f000 8090 	beq.w	8003d70 <HAL_RCCEx_GetPLL3ClockFreq+0x138>
 8003c50:	ee07 3a90 	vmov	s15, r3
 8003c54:	f3c2 03cc 	ubfx	r3, r2, #3, #13
 8003c58:	f3c5 2200 	ubfx	r2, r5, #8, #1
 8003c5c:	f004 0403 	and.w	r4, r4, #3
 8003c60:	eeb8 7ae7 	vcvt.f32.s32	s14, s15
 8003c64:	4353      	muls	r3, r2
 8003c66:	2c01      	cmp	r4, #1
 8003c68:	eeb7 6a00 	vmov.f32	s12, #112	@ 0x3f800000  1.0
 8003c6c:	ee06 3a90 	vmov	s13, r3
 8003c70:	eefa 6ae9 	vcvt.f32.s32	s13, s13, #13
 8003c74:	d06e      	beq.n	8003d54 <HAL_RCCEx_GetPLL3ClockFreq+0x11c>
 8003c76:	2c02      	cmp	r4, #2
 8003c78:	d05e      	beq.n	8003d38 <HAL_RCCEx_GetPLL3ClockFreq+0x100>
 8003c7a:	2c00      	cmp	r4, #0
 8003c7c:	d16a      	bne.n	8003d54 <HAL_RCCEx_GetPLL3ClockFreq+0x11c>
 8003c7e:	680b      	ldr	r3, [r1, #0]
 8003c80:	069b      	lsls	r3, r3, #26
 8003c82:	d547      	bpl.n	8003d14 <HAL_RCCEx_GetPLL3ClockFreq+0xdc>
 8003c84:	680a      	ldr	r2, [r1, #0]
 8003c86:	6c0b      	ldr	r3, [r1, #64]	@ 0x40
 8003c88:	f3c2 01c1 	ubfx	r1, r2, #3, #2
 8003c8c:	4a3b      	ldr	r2, [pc, #236]	@ (8003d7c <HAL_RCCEx_GetPLL3ClockFreq+0x144>)
 8003c8e:	f3c3 0308 	ubfx	r3, r3, #0, #9
 8003c92:	40ca      	lsrs	r2, r1
 8003c94:	ee07 2a90 	vmov	s15, r2
 8003c98:	eef8 5ae7 	vcvt.f32.s32	s11, s15
 8003c9c:	eec5 7a87 	vdiv.f32	s15, s11, s14
 8003ca0:	ee07 3a10 	vmov	s14, r3
 8003ca4:	eeb8 7ac7 	vcvt.f32.s32	s14, s14
 8003ca8:	ee37 7a26 	vadd.f32	s14, s14, s13
 8003cac:	ee37 7a06 	vadd.f32	s14, s14, s12
 8003cb0:	ee67 7a87 	vmul.f32	s15, s15, s14
 8003cb4:	4a30      	ldr	r2, [pc, #192]	@ (8003d78 <HAL_RCCEx_GetPLL3ClockFreq+0x140>)
 8003cb6:	6c13      	ldr	r3, [r2, #64]	@ 0x40
 8003cb8:	f3c3 2346 	ubfx	r3, r3, #9, #7
 8003cbc:	ee07 3a10 	vmov	s14, r3
 8003cc0:	eeb8 7ac7 	vcvt.f32.s32	s14, s14
 8003cc4:	ee37 7a06 	vadd.f32	s14, s14, s12
 8003cc8:	eec7 6a87 	vdiv.f32	s13, s15, s14
 8003ccc:	eefc 6ae6 	vcvt.u32.f32	s13, s13
 8003cd0:	edc0 6a00 	vstr	s13, [r0]
 8003cd4:	6c13      	ldr	r3, [r2, #64]	@ 0x40
 8003cd6:	f3c3 4306 	ubfx	r3, r3, #16, #7
 8003cda:	ee07 3a10 	vmov	s14, r3
 8003cde:	eeb8 7ac7 	vcvt.f32.s32	s14, s14
 8003ce2:	ee37 7a06 	vadd.f32	s14, s14, s12
 8003ce6:	eec7 6a87 	vdiv.f32	s13, s15, s14
 8003cea:	eefc 6ae6 	vcvt.u32.f32	s13, s13
 8003cee:	edc0 6a01 	vstr	s13, [r0, #4]
 8003cf2:	6c13      	ldr	r3, [r2, #64]	@ 0x40
 8003cf4:	f3c3 6306 	ubfx	r3, r3, #24, #7
 8003cf8:	ee06 3a90 	vmov	s13, r3
 8003cfc:	eef8 6ae6 	vcvt.f32.s32	s13, s13
 8003d00:	ee76 6a86 	vadd.f32	s13, s13, s12
 8003d04:	ee87 7aa6 	vdiv.f32	s14, s15, s13
 8003d08:	eefc 7ac7 	vcvt.u32.f32	s15, s14
 8003d0c:	ee17 3a90 	vmov	r3, s15
 8003d10:	6083      	str	r3, [r0, #8]
 8003d12:	bd70      	pop	{r4, r5, r6, pc}
 8003d14:	6c0b      	ldr	r3, [r1, #64]	@ 0x40
 8003d16:	eddf 5a1a 	vldr	s11, [pc, #104]	@ 8003d80 <HAL_RCCEx_GetPLL3ClockFreq+0x148>
 8003d1a:	f3c3 0308 	ubfx	r3, r3, #0, #9
 8003d1e:	ee07 3a90 	vmov	s15, r3
 8003d22:	eef8 7ae7 	vcvt.f32.s32	s15, s15
 8003d26:	ee77 7aa6 	vadd.f32	s15, s15, s13
 8003d2a:	ee77 7a86 	vadd.f32	s15, s15, s12
 8003d2e:	eec5 6a87 	vdiv.f32	s13, s11, s14
 8003d32:	ee67 7aa6 	vmul.f32	s15, s15, s13
 8003d36:	e7bd      	b.n	8003cb4 <HAL_RCCEx_GetPLL3ClockFreq+0x7c>
 8003d38:	6c0b      	ldr	r3, [r1, #64]	@ 0x40
 8003d3a:	eddf 5a12 	vldr	s11, [pc, #72]	@ 8003d84 <HAL_RCCEx_GetPLL3ClockFreq+0x14c>
 8003d3e:	f3c3 0308 	ubfx	r3, r3, #0, #9
 8003d42:	ee07 3a90 	vmov	s15, r3
 8003d46:	eef8 7ae7 	vcvt.f32.s32	s15, s15
 8003d4a:	ee77 7aa6 	vadd.f32	s15, s15, s13
 8003d4e:	ee77 7a86 	vadd.f32	s15, s15, s12
 8003d52:	e7ec      	b.n	8003d2e <HAL_RCCEx_GetPLL3ClockFreq+0xf6>
 8003d54:	6c0b      	ldr	r3, [r1, #64]	@ 0x40
 8003d56:	eddf 5a0c 	vldr	s11, [pc, #48]	@ 8003d88 <HAL_RCCEx_GetPLL3ClockFreq+0x150>
 8003d5a:	f3c3 0308 	ubfx	r3, r3, #0, #9
 8003d5e:	ee07 3a90 	vmov	s15, r3
 8003d62:	eef8 7ae7 	vcvt.f32.s32	s15, s15
 8003d66:	ee77 7aa6 	vadd.f32	s15, s15, s13
 8003d6a:	ee77 7a86 	vadd.f32	s15, s15, s12
 8003d6e:	e7de      	b.n	8003d2e <HAL_RCCEx_GetPLL3ClockFreq+0xf6>
 8003d70:	e9c0 3300 	strd	r3, r3, [r0]
 8003d74:	e7cc      	b.n	8003d10 <HAL_RCCEx_GetPLL3ClockFreq+0xd8>
 8003d76:	bf00      	nop
 8003d78:	58024400 	.word	0x58024400
 8003d7c:	03d09000 	.word	0x03d09000
 8003d80:	4c742400 	.word	0x4c742400
 8003d84:	4bbebc20 	.word	0x4bbebc20
 8003d88:	4a742400 	.word	0x4a742400

08003d8c <HAL_SPI_Init>:
 8003d8c:	b570      	push	{r4, r5, r6, lr}
 8003d8e:	4604      	mov	r4, r0
 8003d90:	b908      	cbnz	r0, 8003d96 <HAL_SPI_Init+0xa>
 8003d92:	2001      	movs	r0, #1
 8003d94:	bd70      	pop	{r4, r5, r6, pc}
 8003d96:	6802      	ldr	r2, [r0, #0]
 8003d98:	2300      	movs	r3, #0
 8003d9a:	4940      	ldr	r1, [pc, #256]	@ (8003e9c <HAL_SPI_Init+0x110>)
 8003d9c:	6283      	str	r3, [r0, #40]	@ 0x28
 8003d9e:	428a      	cmp	r2, r1
 8003da0:	68c3      	ldr	r3, [r0, #12]
 8003da2:	d009      	beq.n	8003db8 <HAL_SPI_Init+0x2c>
 8003da4:	f5a1 4178 	sub.w	r1, r1, #63488	@ 0xf800
 8003da8:	428a      	cmp	r2, r1
 8003daa:	d005      	beq.n	8003db8 <HAL_SPI_Init+0x2c>
 8003dac:	f501 6180 	add.w	r1, r1, #1024	@ 0x400
 8003db0:	428a      	cmp	r2, r1
 8003db2:	d001      	beq.n	8003db8 <HAL_SPI_Init+0x2c>
 8003db4:	2b0f      	cmp	r3, #15
 8003db6:	d8ec      	bhi.n	8003d92 <HAL_SPI_Init+0x6>
 8003db8:	6be1      	ldr	r1, [r4, #60]	@ 0x3c
 8003dba:	3308      	adds	r3, #8
 8003dbc:	0949      	lsrs	r1, r1, #5
 8003dbe:	08db      	lsrs	r3, r3, #3
 8003dc0:	fb01 3303 	mla	r3, r1, r3, r3
 8003dc4:	4935      	ldr	r1, [pc, #212]	@ (8003e9c <HAL_SPI_Init+0x110>)
 8003dc6:	428a      	cmp	r2, r1
 8003dc8:	d066      	beq.n	8003e98 <HAL_SPI_Init+0x10c>
 8003dca:	f5a1 4178 	sub.w	r1, r1, #63488	@ 0xf800
 8003dce:	428a      	cmp	r2, r1
 8003dd0:	d062      	beq.n	8003e98 <HAL_SPI_Init+0x10c>
 8003dd2:	f501 6180 	add.w	r1, r1, #1024	@ 0x400
 8003dd6:	428a      	cmp	r2, r1
 8003dd8:	d05e      	beq.n	8003e98 <HAL_SPI_Init+0x10c>
 8003dda:	2b08      	cmp	r3, #8
 8003ddc:	d8d9      	bhi.n	8003d92 <HAL_SPI_Init+0x6>
 8003dde:	f894 3081 	ldrb.w	r3, [r4, #129]	@ 0x81
 8003de2:	f003 02ff 	and.w	r2, r3, #255	@ 0xff
 8003de6:	b923      	cbnz	r3, 8003df2 <HAL_SPI_Init+0x66>
 8003de8:	4620      	mov	r0, r4
 8003dea:	f884 2080 	strb.w	r2, [r4, #128]	@ 0x80
 8003dee:	f7fd fa89 	bl	8001304 <HAL_SPI_MspInit>
 8003df2:	2302      	movs	r3, #2
 8003df4:	6822      	ldr	r2, [r4, #0]
 8003df6:	6861      	ldr	r1, [r4, #4]
 8003df8:	f884 3081 	strb.w	r3, [r4, #129]	@ 0x81
 8003dfc:	6813      	ldr	r3, [r2, #0]
 8003dfe:	6ba5      	ldr	r5, [r4, #56]	@ 0x38
 8003e00:	f023 0301 	bic.w	r3, r3, #1
 8003e04:	6013      	str	r3, [r2, #0]
 8003e06:	69a3      	ldr	r3, [r4, #24]
 8003e08:	f1b3 6f80 	cmp.w	r3, #67108864	@ 0x4000000
 8003e0c:	d107      	bne.n	8003e1e <HAL_SPI_Init+0x92>
 8003e0e:	f5b1 0f80 	cmp.w	r1, #4194304	@ 0x400000
 8003e12:	d104      	bne.n	8003e1e <HAL_SPI_Init+0x92>
 8003e14:	b91d      	cbnz	r5, 8003e1e <HAL_SPI_Init+0x92>
 8003e16:	6810      	ldr	r0, [r2, #0]
 8003e18:	f440 5080 	orr.w	r0, r0, #4096	@ 0x1000
 8003e1c:	6010      	str	r0, [r2, #0]
 8003e1e:	6aa6      	ldr	r6, [r4, #40]	@ 0x28
 8003e20:	430b      	orrs	r3, r1
 8003e22:	69e0      	ldr	r0, [r4, #28]
 8003e24:	432b      	orrs	r3, r5
 8003e26:	4330      	orrs	r0, r6
 8003e28:	6be6      	ldr	r6, [r4, #60]	@ 0x3c
 8003e2a:	4330      	orrs	r0, r6
 8003e2c:	68e6      	ldr	r6, [r4, #12]
 8003e2e:	4330      	orrs	r0, r6
 8003e30:	6090      	str	r0, [r2, #8]
 8003e32:	6b60      	ldr	r0, [r4, #52]	@ 0x34
 8003e34:	4303      	orrs	r3, r0
 8003e36:	6a60      	ldr	r0, [r4, #36]	@ 0x24
 8003e38:	4303      	orrs	r3, r0
 8003e3a:	6920      	ldr	r0, [r4, #16]
 8003e3c:	4303      	orrs	r3, r0
 8003e3e:	6960      	ldr	r0, [r4, #20]
 8003e40:	4303      	orrs	r3, r0
 8003e42:	6a20      	ldr	r0, [r4, #32]
 8003e44:	4303      	orrs	r3, r0
 8003e46:	6ce0      	ldr	r0, [r4, #76]	@ 0x4c
 8003e48:	4303      	orrs	r3, r0
 8003e4a:	68a0      	ldr	r0, [r4, #8]
 8003e4c:	4303      	orrs	r3, r0
 8003e4e:	6ca0      	ldr	r0, [r4, #72]	@ 0x48
 8003e50:	4303      	orrs	r3, r0
 8003e52:	6da0      	ldr	r0, [r4, #88]	@ 0x58
 8003e54:	4303      	orrs	r3, r0
 8003e56:	60d3      	str	r3, [r2, #12]
 8003e58:	b959      	cbnz	r1, 8003e72 <HAL_SPI_Init+0xe6>
 8003e5a:	6893      	ldr	r3, [r2, #8]
 8003e5c:	f423 53c0 	bic.w	r3, r3, #6144	@ 0x1800
 8003e60:	f443 6300 	orr.w	r3, r3, #2048	@ 0x800
 8003e64:	6093      	str	r3, [r2, #8]
 8003e66:	6893      	ldr	r3, [r2, #8]
 8003e68:	f423 63c0 	bic.w	r3, r3, #1536	@ 0x600
 8003e6c:	f443 6380 	orr.w	r3, r3, #1024	@ 0x400
 8003e70:	6093      	str	r3, [r2, #8]
 8003e72:	6d13      	ldr	r3, [r2, #80]	@ 0x50
 8003e74:	f023 0301 	bic.w	r3, r3, #1
 8003e78:	6513      	str	r3, [r2, #80]	@ 0x50
 8003e7a:	024b      	lsls	r3, r1, #9
 8003e7c:	d505      	bpl.n	8003e8a <HAL_SPI_Init+0xfe>
 8003e7e:	68d3      	ldr	r3, [r2, #12]
 8003e80:	6d61      	ldr	r1, [r4, #84]	@ 0x54
 8003e82:	f023 4300 	bic.w	r3, r3, #2147483648	@ 0x80000000
 8003e86:	430b      	orrs	r3, r1
 8003e88:	60d3      	str	r3, [r2, #12]
 8003e8a:	2000      	movs	r0, #0
 8003e8c:	2301      	movs	r3, #1
 8003e8e:	f8c4 0084 	str.w	r0, [r4, #132]	@ 0x84
 8003e92:	f884 3081 	strb.w	r3, [r4, #129]	@ 0x81
 8003e96:	e77d      	b.n	8003d94 <HAL_SPI_Init+0x8>
 8003e98:	2b10      	cmp	r3, #16
 8003e9a:	e79f      	b.n	8003ddc <HAL_SPI_Init+0x50>
 8003e9c:	40013000 	.word	0x40013000

08003ea0 <HAL_TIM_Base_Start_IT>:
 8003ea0:	f890 303d 	ldrb.w	r3, [r0, #61]	@ 0x3d
 8003ea4:	2b01      	cmp	r3, #1
 8003ea6:	d116      	bne.n	8003ed6 <HAL_TIM_Base_Start_IT+0x36>
 8003ea8:	2302      	movs	r3, #2
 8003eaa:	f880 303d 	strb.w	r3, [r0, #61]	@ 0x3d
 8003eae:	6803      	ldr	r3, [r0, #0]
 8003eb0:	68da      	ldr	r2, [r3, #12]
 8003eb2:	f042 0201 	orr.w	r2, r2, #1
 8003eb6:	60da      	str	r2, [r3, #12]
 8003eb8:	4a08      	ldr	r2, [pc, #32]	@ (8003edc <HAL_TIM_Base_Start_IT+0x3c>)
 8003eba:	6899      	ldr	r1, [r3, #8]
 8003ebc:	400a      	ands	r2, r1
 8003ebe:	2a06      	cmp	r2, #6
 8003ec0:	d002      	beq.n	8003ec8 <HAL_TIM_Base_Start_IT+0x28>
 8003ec2:	f5b2 3f80 	cmp.w	r2, #65536	@ 0x10000
 8003ec6:	d101      	bne.n	8003ecc <HAL_TIM_Base_Start_IT+0x2c>
 8003ec8:	2000      	movs	r0, #0
 8003eca:	4770      	bx	lr
 8003ecc:	681a      	ldr	r2, [r3, #0]
 8003ece:	f042 0201 	orr.w	r2, r2, #1
 8003ed2:	601a      	str	r2, [r3, #0]
 8003ed4:	e7f8      	b.n	8003ec8 <HAL_TIM_Base_Start_IT+0x28>
 8003ed6:	2001      	movs	r0, #1
 8003ed8:	4770      	bx	lr
 8003eda:	bf00      	nop
 8003edc:	00010007 	.word	0x00010007

08003ee0 <HAL_TIM_OC_DelayElapsedCallback>:
 8003ee0:	4770      	bx	lr

08003ee2 <HAL_TIM_IC_CaptureCallback>:
 8003ee2:	4770      	bx	lr

08003ee4 <HAL_TIM_PWM_PulseFinishedCallback>:
 8003ee4:	4770      	bx	lr

08003ee6 <HAL_TIM_TriggerCallback>:
 8003ee6:	4770      	bx	lr

08003ee8 <HAL_TIM_IRQHandler>:
 8003ee8:	6803      	ldr	r3, [r0, #0]
 8003eea:	691a      	ldr	r2, [r3, #16]
 8003eec:	0791      	lsls	r1, r2, #30
 8003eee:	b510      	push	{r4, lr}
 8003ef0:	4604      	mov	r4, r0
 8003ef2:	d50f      	bpl.n	8003f14 <HAL_TIM_IRQHandler+0x2c>
 8003ef4:	68da      	ldr	r2, [r3, #12]
 8003ef6:	0792      	lsls	r2, r2, #30
 8003ef8:	d50c      	bpl.n	8003f14 <HAL_TIM_IRQHandler+0x2c>
 8003efa:	f06f 0202 	mvn.w	r2, #2
 8003efe:	611a      	str	r2, [r3, #16]
 8003f00:	2201      	movs	r2, #1
 8003f02:	7702      	strb	r2, [r0, #28]
 8003f04:	699b      	ldr	r3, [r3, #24]
 8003f06:	0799      	lsls	r1, r3, #30
 8003f08:	f000 8085 	beq.w	8004016 <HAL_TIM_IRQHandler+0x12e>
 8003f0c:	f7ff ffe9 	bl	8003ee2 <HAL_TIM_IC_CaptureCallback>
 8003f10:	2300      	movs	r3, #0
 8003f12:	7723      	strb	r3, [r4, #28]
 8003f14:	6823      	ldr	r3, [r4, #0]
 8003f16:	691a      	ldr	r2, [r3, #16]
 8003f18:	0752      	lsls	r2, r2, #29
 8003f1a:	d510      	bpl.n	8003f3e <HAL_TIM_IRQHandler+0x56>
 8003f1c:	68da      	ldr	r2, [r3, #12]
 8003f1e:	0750      	lsls	r0, r2, #29
 8003f20:	d50d      	bpl.n	8003f3e <HAL_TIM_IRQHandler+0x56>
 8003f22:	f06f 0204 	mvn.w	r2, #4
 8003f26:	4620      	mov	r0, r4
 8003f28:	611a      	str	r2, [r3, #16]
 8003f2a:	2202      	movs	r2, #2
 8003f2c:	7722      	strb	r2, [r4, #28]
 8003f2e:	699b      	ldr	r3, [r3, #24]
 8003f30:	f413 7f40 	tst.w	r3, #768	@ 0x300
 8003f34:	d075      	beq.n	8004022 <HAL_TIM_IRQHandler+0x13a>
 8003f36:	f7ff ffd4 	bl	8003ee2 <HAL_TIM_IC_CaptureCallback>
 8003f3a:	2300      	movs	r3, #0
 8003f3c:	7723      	strb	r3, [r4, #28]
 8003f3e:	6823      	ldr	r3, [r4, #0]
 8003f40:	691a      	ldr	r2, [r3, #16]
 8003f42:	0711      	lsls	r1, r2, #28
 8003f44:	d50f      	bpl.n	8003f66 <HAL_TIM_IRQHandler+0x7e>
 8003f46:	68da      	ldr	r2, [r3, #12]
 8003f48:	0712      	lsls	r2, r2, #28
 8003f4a:	d50c      	bpl.n	8003f66 <HAL_TIM_IRQHandler+0x7e>
 8003f4c:	f06f 0208 	mvn.w	r2, #8
 8003f50:	4620      	mov	r0, r4
 8003f52:	611a      	str	r2, [r3, #16]
 8003f54:	2204      	movs	r2, #4
 8003f56:	7722      	strb	r2, [r4, #28]
 8003f58:	69db      	ldr	r3, [r3, #28]
 8003f5a:	079b      	lsls	r3, r3, #30
 8003f5c:	d067      	beq.n	800402e <HAL_TIM_IRQHandler+0x146>
 8003f5e:	f7ff ffc0 	bl	8003ee2 <HAL_TIM_IC_CaptureCallback>
 8003f62:	2300      	movs	r3, #0
 8003f64:	7723      	strb	r3, [r4, #28]
 8003f66:	6823      	ldr	r3, [r4, #0]
 8003f68:	691a      	ldr	r2, [r3, #16]
 8003f6a:	06d0      	lsls	r0, r2, #27
 8003f6c:	d510      	bpl.n	8003f90 <HAL_TIM_IRQHandler+0xa8>
 8003f6e:	68da      	ldr	r2, [r3, #12]
 8003f70:	06d1      	lsls	r1, r2, #27
 8003f72:	d50d      	bpl.n	8003f90 <HAL_TIM_IRQHandler+0xa8>
 8003f74:	f06f 0210 	mvn.w	r2, #16
 8003f78:	4620      	mov	r0, r4
 8003f7a:	611a      	str	r2, [r3, #16]
 8003f7c:	2208      	movs	r2, #8
 8003f7e:	7722      	strb	r2, [r4, #28]
 8003f80:	69db      	ldr	r3, [r3, #28]
 8003f82:	f413 7f40 	tst.w	r3, #768	@ 0x300
 8003f86:	d058      	beq.n	800403a <HAL_TIM_IRQHandler+0x152>
 8003f88:	f7ff ffab 	bl	8003ee2 <HAL_TIM_IC_CaptureCallback>
 8003f8c:	2300      	movs	r3, #0
 8003f8e:	7723      	strb	r3, [r4, #28]
 8003f90:	6823      	ldr	r3, [r4, #0]
 8003f92:	691a      	ldr	r2, [r3, #16]
 8003f94:	07d2      	lsls	r2, r2, #31
 8003f96:	d508      	bpl.n	8003faa <HAL_TIM_IRQHandler+0xc2>
 8003f98:	68da      	ldr	r2, [r3, #12]
 8003f9a:	07d0      	lsls	r0, r2, #31
 8003f9c:	d505      	bpl.n	8003faa <HAL_TIM_IRQHandler+0xc2>
 8003f9e:	f06f 0201 	mvn.w	r2, #1
 8003fa2:	4620      	mov	r0, r4
 8003fa4:	611a      	str	r2, [r3, #16]
 8003fa6:	f7fc fdd7 	bl	8000b58 <HAL_TIM_PeriodElapsedCallback>
 8003faa:	6823      	ldr	r3, [r4, #0]
 8003fac:	691a      	ldr	r2, [r3, #16]
 8003fae:	0611      	lsls	r1, r2, #24
 8003fb0:	d508      	bpl.n	8003fc4 <HAL_TIM_IRQHandler+0xdc>
 8003fb2:	68da      	ldr	r2, [r3, #12]
 8003fb4:	0612      	lsls	r2, r2, #24
 8003fb6:	d505      	bpl.n	8003fc4 <HAL_TIM_IRQHandler+0xdc>
 8003fb8:	f06f 0280 	mvn.w	r2, #128	@ 0x80
 8003fbc:	4620      	mov	r0, r4
 8003fbe:	611a      	str	r2, [r3, #16]
 8003fc0:	f000 f9c1 	bl	8004346 <HAL_TIMEx_BreakCallback>
 8003fc4:	6823      	ldr	r3, [r4, #0]
 8003fc6:	691a      	ldr	r2, [r3, #16]
 8003fc8:	05d0      	lsls	r0, r2, #23
 8003fca:	d508      	bpl.n	8003fde <HAL_TIM_IRQHandler+0xf6>
 8003fcc:	68da      	ldr	r2, [r3, #12]
 8003fce:	0611      	lsls	r1, r2, #24
 8003fd0:	d505      	bpl.n	8003fde <HAL_TIM_IRQHandler+0xf6>
 8003fd2:	f46f 7280 	mvn.w	r2, #256	@ 0x100
 8003fd6:	4620      	mov	r0, r4
 8003fd8:	611a      	str	r2, [r3, #16]
 8003fda:	f000 f9b5 	bl	8004348 <HAL_TIMEx_Break2Callback>
 8003fde:	6823      	ldr	r3, [r4, #0]
 8003fe0:	691a      	ldr	r2, [r3, #16]
 8003fe2:	0652      	lsls	r2, r2, #25
 8003fe4:	d508      	bpl.n	8003ff8 <HAL_TIM_IRQHandler+0x110>
 8003fe6:	68da      	ldr	r2, [r3, #12]
 8003fe8:	0650      	lsls	r0, r2, #25
 8003fea:	d505      	bpl.n	8003ff8 <HAL_TIM_IRQHandler+0x110>
 8003fec:	f06f 0240 	mvn.w	r2, #64	@ 0x40
 8003ff0:	4620      	mov	r0, r4
 8003ff2:	611a      	str	r2, [r3, #16]
 8003ff4:	f7ff ff77 	bl	8003ee6 <HAL_TIM_TriggerCallback>
 8003ff8:	6823      	ldr	r3, [r4, #0]
 8003ffa:	691a      	ldr	r2, [r3, #16]
 8003ffc:	0691      	lsls	r1, r2, #26
 8003ffe:	d522      	bpl.n	8004046 <HAL_TIM_IRQHandler+0x15e>
 8004000:	68da      	ldr	r2, [r3, #12]
 8004002:	0692      	lsls	r2, r2, #26
 8004004:	d51f      	bpl.n	8004046 <HAL_TIM_IRQHandler+0x15e>
 8004006:	f06f 0220 	mvn.w	r2, #32
 800400a:	4620      	mov	r0, r4
 800400c:	611a      	str	r2, [r3, #16]
 800400e:	e8bd 4010 	ldmia.w	sp!, {r4, lr}
 8004012:	f000 b997 	b.w	8004344 <HAL_TIMEx_CommutCallback>
 8004016:	f7ff ff63 	bl	8003ee0 <HAL_TIM_OC_DelayElapsedCallback>
 800401a:	4620      	mov	r0, r4
 800401c:	f7ff ff62 	bl	8003ee4 <HAL_TIM_PWM_PulseFinishedCallback>
 8004020:	e776      	b.n	8003f10 <HAL_TIM_IRQHandler+0x28>
 8004022:	f7ff ff5d 	bl	8003ee0 <HAL_TIM_OC_DelayElapsedCallback>
 8004026:	4620      	mov	r0, r4
 8004028:	f7ff ff5c 	bl	8003ee4 <HAL_TIM_PWM_PulseFinishedCallback>
 800402c:	e785      	b.n	8003f3a <HAL_TIM_IRQHandler+0x52>
 800402e:	f7ff ff57 	bl	8003ee0 <HAL_TIM_OC_DelayElapsedCallback>
 8004032:	4620      	mov	r0, r4
 8004034:	f7ff ff56 	bl	8003ee4 <HAL_TIM_PWM_PulseFinishedCallback>
 8004038:	e793      	b.n	8003f62 <HAL_TIM_IRQHandler+0x7a>
 800403a:	f7ff ff51 	bl	8003ee0 <HAL_TIM_OC_DelayElapsedCallback>
 800403e:	4620      	mov	r0, r4
 8004040:	f7ff ff50 	bl	8003ee4 <HAL_TIM_PWM_PulseFinishedCallback>
 8004044:	e7a2      	b.n	8003f8c <HAL_TIM_IRQHandler+0xa4>
 8004046:	bd10      	pop	{r4, pc}

08004048 <TIM_Base_SetConfig>:
 8004048:	4a25      	ldr	r2, [pc, #148]	@ (80040e0 <TIM_Base_SetConfig+0x98>)
 800404a:	6803      	ldr	r3, [r0, #0]
 800404c:	4290      	cmp	r0, r2
 800404e:	d012      	beq.n	8004076 <TIM_Base_SetConfig+0x2e>
 8004050:	f1b0 4f80 	cmp.w	r0, #1073741824	@ 0x40000000
 8004054:	d00f      	beq.n	8004076 <TIM_Base_SetConfig+0x2e>
 8004056:	f5a2 427c 	sub.w	r2, r2, #64512	@ 0xfc00
 800405a:	4290      	cmp	r0, r2
 800405c:	d00b      	beq.n	8004076 <TIM_Base_SetConfig+0x2e>
 800405e:	f502 6280 	add.w	r2, r2, #1024	@ 0x400
 8004062:	4290      	cmp	r0, r2
 8004064:	d007      	beq.n	8004076 <TIM_Base_SetConfig+0x2e>
 8004066:	f502 6280 	add.w	r2, r2, #1024	@ 0x400
 800406a:	4290      	cmp	r0, r2
 800406c:	d003      	beq.n	8004076 <TIM_Base_SetConfig+0x2e>
 800406e:	f502 4278 	add.w	r2, r2, #63488	@ 0xf800
 8004072:	4290      	cmp	r0, r2
 8004074:	d108      	bne.n	8004088 <TIM_Base_SetConfig+0x40>
 8004076:	f023 0370 	bic.w	r3, r3, #112	@ 0x70
 800407a:	684a      	ldr	r2, [r1, #4]
 800407c:	4313      	orrs	r3, r2
 800407e:	f423 7340 	bic.w	r3, r3, #768	@ 0x300
 8004082:	68ca      	ldr	r2, [r1, #12]
 8004084:	4313      	orrs	r3, r2
 8004086:	e00a      	b.n	800409e <TIM_Base_SetConfig+0x56>
 8004088:	4a16      	ldr	r2, [pc, #88]	@ (80040e4 <TIM_Base_SetConfig+0x9c>)
 800408a:	4290      	cmp	r0, r2
 800408c:	d0f7      	beq.n	800407e <TIM_Base_SetConfig+0x36>
 800408e:	f502 6280 	add.w	r2, r2, #1024	@ 0x400
 8004092:	4290      	cmp	r0, r2
 8004094:	d0f3      	beq.n	800407e <TIM_Base_SetConfig+0x36>
 8004096:	f502 6280 	add.w	r2, r2, #1024	@ 0x400
 800409a:	4290      	cmp	r0, r2
 800409c:	d0ef      	beq.n	800407e <TIM_Base_SetConfig+0x36>
 800409e:	694a      	ldr	r2, [r1, #20]
 80040a0:	f023 0380 	bic.w	r3, r3, #128	@ 0x80
 80040a4:	4313      	orrs	r3, r2
 80040a6:	6003      	str	r3, [r0, #0]
 80040a8:	688b      	ldr	r3, [r1, #8]
 80040aa:	62c3      	str	r3, [r0, #44]	@ 0x2c
 80040ac:	680b      	ldr	r3, [r1, #0]
 80040ae:	6283      	str	r3, [r0, #40]	@ 0x28
 80040b0:	4b0b      	ldr	r3, [pc, #44]	@ (80040e0 <TIM_Base_SetConfig+0x98>)
 80040b2:	4298      	cmp	r0, r3
 80040b4:	d00f      	beq.n	80040d6 <TIM_Base_SetConfig+0x8e>
 80040b6:	f503 6380 	add.w	r3, r3, #1024	@ 0x400
 80040ba:	4298      	cmp	r0, r3
 80040bc:	d00b      	beq.n	80040d6 <TIM_Base_SetConfig+0x8e>
 80040be:	f503 5370 	add.w	r3, r3, #15360	@ 0x3c00
 80040c2:	4298      	cmp	r0, r3
 80040c4:	d007      	beq.n	80040d6 <TIM_Base_SetConfig+0x8e>
 80040c6:	f503 6380 	add.w	r3, r3, #1024	@ 0x400
 80040ca:	4298      	cmp	r0, r3
 80040cc:	d003      	beq.n	80040d6 <TIM_Base_SetConfig+0x8e>
 80040ce:	f503 6380 	add.w	r3, r3, #1024	@ 0x400
 80040d2:	4298      	cmp	r0, r3
 80040d4:	d101      	bne.n	80040da <TIM_Base_SetConfig+0x92>
 80040d6:	690b      	ldr	r3, [r1, #16]
 80040d8:	6303      	str	r3, [r0, #48]	@ 0x30
 80040da:	2301      	movs	r3, #1
 80040dc:	6143      	str	r3, [r0, #20]
 80040de:	4770      	bx	lr
 80040e0:	40010000 	.word	0x40010000
 80040e4:	40014000 	.word	0x40014000

080040e8 <HAL_TIM_Base_Init>:
 80040e8:	b510      	push	{r4, lr}
 80040ea:	4604      	mov	r4, r0
 80040ec:	b350      	cbz	r0, 8004144 <HAL_TIM_Base_Init+0x5c>
 80040ee:	f890 303d 	ldrb.w	r3, [r0, #61]	@ 0x3d
 80040f2:	f003 02ff 	and.w	r2, r3, #255	@ 0xff
 80040f6:	b91b      	cbnz	r3, 8004100 <HAL_TIM_Base_Init+0x18>
 80040f8:	f880 203c 	strb.w	r2, [r0, #60]	@ 0x3c
 80040fc:	f7fd f93a 	bl	8001374 <HAL_TIM_Base_MspInit>
 8004100:	2302      	movs	r3, #2
 8004102:	6820      	ldr	r0, [r4, #0]
 8004104:	1d21      	adds	r1, r4, #4
 8004106:	f884 303d 	strb.w	r3, [r4, #61]	@ 0x3d
 800410a:	f7ff ff9d 	bl	8004048 <TIM_Base_SetConfig>
 800410e:	2301      	movs	r3, #1
 8004110:	2000      	movs	r0, #0
 8004112:	f884 3048 	strb.w	r3, [r4, #72]	@ 0x48
 8004116:	f884 303e 	strb.w	r3, [r4, #62]	@ 0x3e
 800411a:	f884 303f 	strb.w	r3, [r4, #63]	@ 0x3f
 800411e:	f884 3040 	strb.w	r3, [r4, #64]	@ 0x40
 8004122:	f884 3041 	strb.w	r3, [r4, #65]	@ 0x41
 8004126:	f884 3042 	strb.w	r3, [r4, #66]	@ 0x42
 800412a:	f884 3043 	strb.w	r3, [r4, #67]	@ 0x43
 800412e:	f884 3044 	strb.w	r3, [r4, #68]	@ 0x44
 8004132:	f884 3045 	strb.w	r3, [r4, #69]	@ 0x45
 8004136:	f884 3046 	strb.w	r3, [r4, #70]	@ 0x46
 800413a:	f884 3047 	strb.w	r3, [r4, #71]	@ 0x47
 800413e:	f884 303d 	strb.w	r3, [r4, #61]	@ 0x3d
 8004142:	bd10      	pop	{r4, pc}
 8004144:	2001      	movs	r0, #1
 8004146:	e7fc      	b.n	8004142 <HAL_TIM_Base_Init+0x5a>

08004148 <TIM_ETR_SetConfig>:
 8004148:	b510      	push	{r4, lr}
 800414a:	430a      	orrs	r2, r1
 800414c:	6884      	ldr	r4, [r0, #8]
 800414e:	ea42 2203 	orr.w	r2, r2, r3, lsl #8
 8004152:	f424 447f 	bic.w	r4, r4, #65280	@ 0xff00
 8004156:	4322      	orrs	r2, r4
 8004158:	6082      	str	r2, [r0, #8]
 800415a:	bd10      	pop	{r4, pc}

0800415c <HAL_TIM_ConfigClockSource>:
 800415c:	b538      	push	{r3, r4, r5, lr}
 800415e:	f890 303c 	ldrb.w	r3, [r0, #60]	@ 0x3c
 8004162:	4604      	mov	r4, r0
 8004164:	2002      	movs	r0, #2
 8004166:	2b01      	cmp	r3, #1
 8004168:	d02b      	beq.n	80041c2 <HAL_TIM_ConfigClockSource+0x66>
 800416a:	f884 003d 	strb.w	r0, [r4, #61]	@ 0x3d
 800416e:	2301      	movs	r3, #1
 8004170:	6820      	ldr	r0, [r4, #0]
 8004172:	f884 303c 	strb.w	r3, [r4, #60]	@ 0x3c
 8004176:	4b4d      	ldr	r3, [pc, #308]	@ (80042ac <HAL_TIM_ConfigClockSource+0x150>)
 8004178:	6882      	ldr	r2, [r0, #8]
 800417a:	4013      	ands	r3, r2
 800417c:	6083      	str	r3, [r0, #8]
 800417e:	680b      	ldr	r3, [r1, #0]
 8004180:	2b60      	cmp	r3, #96	@ 0x60
 8004182:	d060      	beq.n	8004246 <HAL_TIM_ConfigClockSource+0xea>
 8004184:	d81e      	bhi.n	80041c4 <HAL_TIM_ConfigClockSource+0x68>
 8004186:	2b40      	cmp	r3, #64	@ 0x40
 8004188:	d077      	beq.n	800427a <HAL_TIM_ConfigClockSource+0x11e>
 800418a:	d812      	bhi.n	80041b2 <HAL_TIM_ConfigClockSource+0x56>
 800418c:	2b20      	cmp	r3, #32
 800418e:	d003      	beq.n	8004198 <HAL_TIM_ConfigClockSource+0x3c>
 8004190:	d80c      	bhi.n	80041ac <HAL_TIM_ConfigClockSource+0x50>
 8004192:	f033 0210 	bics.w	r2, r3, #16
 8004196:	d10e      	bne.n	80041b6 <HAL_TIM_ConfigClockSource+0x5a>
 8004198:	6882      	ldr	r2, [r0, #8]
 800419a:	f422 1240 	bic.w	r2, r2, #3145728	@ 0x300000
 800419e:	f022 0270 	bic.w	r2, r2, #112	@ 0x70
 80041a2:	431a      	orrs	r2, r3
 80041a4:	f042 0207 	orr.w	r2, r2, #7
 80041a8:	6082      	str	r2, [r0, #8]
 80041aa:	e004      	b.n	80041b6 <HAL_TIM_ConfigClockSource+0x5a>
 80041ac:	2b30      	cmp	r3, #48	@ 0x30
 80041ae:	d102      	bne.n	80041b6 <HAL_TIM_ConfigClockSource+0x5a>
 80041b0:	e7f2      	b.n	8004198 <HAL_TIM_ConfigClockSource+0x3c>
 80041b2:	2b50      	cmp	r3, #80	@ 0x50
 80041b4:	d02e      	beq.n	8004214 <HAL_TIM_ConfigClockSource+0xb8>
 80041b6:	2301      	movs	r3, #1
 80041b8:	2000      	movs	r0, #0
 80041ba:	f884 303d 	strb.w	r3, [r4, #61]	@ 0x3d
 80041be:	f884 003c 	strb.w	r0, [r4, #60]	@ 0x3c
 80041c2:	bd38      	pop	{r3, r4, r5, pc}
 80041c4:	f5b3 5f00 	cmp.w	r3, #8192	@ 0x2000
 80041c8:	d01b      	beq.n	8004202 <HAL_TIM_ConfigClockSource+0xa6>
 80041ca:	d80b      	bhi.n	80041e4 <HAL_TIM_ConfigClockSource+0x88>
 80041cc:	2b70      	cmp	r3, #112	@ 0x70
 80041ce:	d1f2      	bne.n	80041b6 <HAL_TIM_ConfigClockSource+0x5a>
 80041d0:	68cb      	ldr	r3, [r1, #12]
 80041d2:	e9d1 2101 	ldrd	r2, r1, [r1, #4]
 80041d6:	f7ff ffb7 	bl	8004148 <TIM_ETR_SetConfig>
 80041da:	6883      	ldr	r3, [r0, #8]
 80041dc:	f043 0377 	orr.w	r3, r3, #119	@ 0x77
 80041e0:	6083      	str	r3, [r0, #8]
 80041e2:	e7e8      	b.n	80041b6 <HAL_TIM_ConfigClockSource+0x5a>
 80041e4:	4a32      	ldr	r2, [pc, #200]	@ (80042b0 <HAL_TIM_ConfigClockSource+0x154>)
 80041e6:	4293      	cmp	r3, r2
 80041e8:	d0d6      	beq.n	8004198 <HAL_TIM_ConfigClockSource+0x3c>
 80041ea:	d804      	bhi.n	80041f6 <HAL_TIM_ConfigClockSource+0x9a>
 80041ec:	f023 0210 	bic.w	r2, r3, #16
 80041f0:	f5b2 1f80 	cmp.w	r2, #1048576	@ 0x100000
 80041f4:	e7db      	b.n	80041ae <HAL_TIM_ConfigClockSource+0x52>
 80041f6:	4a2f      	ldr	r2, [pc, #188]	@ (80042b4 <HAL_TIM_ConfigClockSource+0x158>)
 80041f8:	4293      	cmp	r3, r2
 80041fa:	d0cd      	beq.n	8004198 <HAL_TIM_ConfigClockSource+0x3c>
 80041fc:	3210      	adds	r2, #16
 80041fe:	4293      	cmp	r3, r2
 8004200:	e7d5      	b.n	80041ae <HAL_TIM_ConfigClockSource+0x52>
 8004202:	68cb      	ldr	r3, [r1, #12]
 8004204:	e9d1 2101 	ldrd	r2, r1, [r1, #4]
 8004208:	f7ff ff9e 	bl	8004148 <TIM_ETR_SetConfig>
 800420c:	6883      	ldr	r3, [r0, #8]
 800420e:	f443 4380 	orr.w	r3, r3, #16384	@ 0x4000
 8004212:	e7e5      	b.n	80041e0 <HAL_TIM_ConfigClockSource+0x84>
 8004214:	684a      	ldr	r2, [r1, #4]
 8004216:	68cd      	ldr	r5, [r1, #12]
 8004218:	6a01      	ldr	r1, [r0, #32]
 800421a:	6a03      	ldr	r3, [r0, #32]
 800421c:	f021 010a 	bic.w	r1, r1, #10
 8004220:	f023 0301 	bic.w	r3, r3, #1
 8004224:	430a      	orrs	r2, r1
 8004226:	6203      	str	r3, [r0, #32]
 8004228:	6983      	ldr	r3, [r0, #24]
 800422a:	f023 03f0 	bic.w	r3, r3, #240	@ 0xf0
 800422e:	ea43 1305 	orr.w	r3, r3, r5, lsl #4
 8004232:	6183      	str	r3, [r0, #24]
 8004234:	6202      	str	r2, [r0, #32]
 8004236:	6883      	ldr	r3, [r0, #8]
 8004238:	f423 1340 	bic.w	r3, r3, #3145728	@ 0x300000
 800423c:	f023 0370 	bic.w	r3, r3, #112	@ 0x70
 8004240:	f043 0357 	orr.w	r3, r3, #87	@ 0x57
 8004244:	e7cc      	b.n	80041e0 <HAL_TIM_ConfigClockSource+0x84>
 8004246:	6a03      	ldr	r3, [r0, #32]
 8004248:	684d      	ldr	r5, [r1, #4]
 800424a:	f023 0310 	bic.w	r3, r3, #16
 800424e:	68c9      	ldr	r1, [r1, #12]
 8004250:	6203      	str	r3, [r0, #32]
 8004252:	6982      	ldr	r2, [r0, #24]
 8004254:	6a03      	ldr	r3, [r0, #32]
 8004256:	f422 4270 	bic.w	r2, r2, #61440	@ 0xf000
 800425a:	f023 03a0 	bic.w	r3, r3, #160	@ 0xa0
 800425e:	ea42 3201 	orr.w	r2, r2, r1, lsl #12
 8004262:	ea43 1305 	orr.w	r3, r3, r5, lsl #4
 8004266:	6182      	str	r2, [r0, #24]
 8004268:	6203      	str	r3, [r0, #32]
 800426a:	6883      	ldr	r3, [r0, #8]
 800426c:	f423 1340 	bic.w	r3, r3, #3145728	@ 0x300000
 8004270:	f023 0370 	bic.w	r3, r3, #112	@ 0x70
 8004274:	f043 0367 	orr.w	r3, r3, #103	@ 0x67
 8004278:	e7b2      	b.n	80041e0 <HAL_TIM_ConfigClockSource+0x84>
 800427a:	684a      	ldr	r2, [r1, #4]
 800427c:	68cd      	ldr	r5, [r1, #12]
 800427e:	6a01      	ldr	r1, [r0, #32]
 8004280:	6a03      	ldr	r3, [r0, #32]
 8004282:	f021 010a 	bic.w	r1, r1, #10
 8004286:	f023 0301 	bic.w	r3, r3, #1
 800428a:	430a      	orrs	r2, r1
 800428c:	6203      	str	r3, [r0, #32]
 800428e:	6983      	ldr	r3, [r0, #24]
 8004290:	f023 03f0 	bic.w	r3, r3, #240	@ 0xf0
 8004294:	ea43 1305 	orr.w	r3, r3, r5, lsl #4
 8004298:	6183      	str	r3, [r0, #24]
 800429a:	6202      	str	r2, [r0, #32]
 800429c:	6883      	ldr	r3, [r0, #8]
 800429e:	f423 1340 	bic.w	r3, r3, #3145728	@ 0x300000
 80042a2:	f023 0370 	bic.w	r3, r3, #112	@ 0x70
 80042a6:	f043 0347 	orr.w	r3, r3, #71	@ 0x47
 80042aa:	e799      	b.n	80041e0 <HAL_TIM_ConfigClockSource+0x84>
 80042ac:	ffce0088 	.word	0xffce0088
 80042b0:	00100020 	.word	0x00100020
 80042b4:	00100030 	.word	0x00100030

080042b8 <HAL_TIMEx_MasterConfigSynchronization>:
 80042b8:	b570      	push	{r4, r5, r6, lr}
 80042ba:	f890 303c 	ldrb.w	r3, [r0, #60]	@ 0x3c
 80042be:	4604      	mov	r4, r0
 80042c0:	2002      	movs	r0, #2
 80042c2:	2b01      	cmp	r3, #1
 80042c4:	d037      	beq.n	8004336 <HAL_TIMEx_MasterConfigSynchronization+0x7e>
 80042c6:	6823      	ldr	r3, [r4, #0]
 80042c8:	4d1b      	ldr	r5, [pc, #108]	@ (8004338 <HAL_TIMEx_MasterConfigSynchronization+0x80>)
 80042ca:	f884 003d 	strb.w	r0, [r4, #61]	@ 0x3d
 80042ce:	42ab      	cmp	r3, r5
 80042d0:	685a      	ldr	r2, [r3, #4]
 80042d2:	6898      	ldr	r0, [r3, #8]
 80042d4:	d002      	beq.n	80042dc <HAL_TIMEx_MasterConfigSynchronization+0x24>
 80042d6:	4e19      	ldr	r6, [pc, #100]	@ (800433c <HAL_TIMEx_MasterConfigSynchronization+0x84>)
 80042d8:	42b3      	cmp	r3, r6
 80042da:	d103      	bne.n	80042e4 <HAL_TIMEx_MasterConfigSynchronization+0x2c>
 80042dc:	f422 0270 	bic.w	r2, r2, #15728640	@ 0xf00000
 80042e0:	684e      	ldr	r6, [r1, #4]
 80042e2:	4332      	orrs	r2, r6
 80042e4:	680e      	ldr	r6, [r1, #0]
 80042e6:	f022 0270 	bic.w	r2, r2, #112	@ 0x70
 80042ea:	42ab      	cmp	r3, r5
 80042ec:	ea42 0206 	orr.w	r2, r2, r6
 80042f0:	605a      	str	r2, [r3, #4]
 80042f2:	d015      	beq.n	8004320 <HAL_TIMEx_MasterConfigSynchronization+0x68>
 80042f4:	f1b3 4f80 	cmp.w	r3, #1073741824	@ 0x40000000
 80042f8:	d012      	beq.n	8004320 <HAL_TIMEx_MasterConfigSynchronization+0x68>
 80042fa:	4a11      	ldr	r2, [pc, #68]	@ (8004340 <HAL_TIMEx_MasterConfigSynchronization+0x88>)
 80042fc:	4293      	cmp	r3, r2
 80042fe:	d00f      	beq.n	8004320 <HAL_TIMEx_MasterConfigSynchronization+0x68>
 8004300:	f502 6280 	add.w	r2, r2, #1024	@ 0x400
 8004304:	4293      	cmp	r3, r2
 8004306:	d00b      	beq.n	8004320 <HAL_TIMEx_MasterConfigSynchronization+0x68>
 8004308:	f502 6280 	add.w	r2, r2, #1024	@ 0x400
 800430c:	4293      	cmp	r3, r2
 800430e:	d007      	beq.n	8004320 <HAL_TIMEx_MasterConfigSynchronization+0x68>
 8004310:	f502 4278 	add.w	r2, r2, #63488	@ 0xf800
 8004314:	4293      	cmp	r3, r2
 8004316:	d003      	beq.n	8004320 <HAL_TIMEx_MasterConfigSynchronization+0x68>
 8004318:	f5a2 426c 	sub.w	r2, r2, #60416	@ 0xec00
 800431c:	4293      	cmp	r3, r2
 800431e:	d104      	bne.n	800432a <HAL_TIMEx_MasterConfigSynchronization+0x72>
 8004320:	6889      	ldr	r1, [r1, #8]
 8004322:	f020 0280 	bic.w	r2, r0, #128	@ 0x80
 8004326:	430a      	orrs	r2, r1
 8004328:	609a      	str	r2, [r3, #8]
 800432a:	2301      	movs	r3, #1
 800432c:	2000      	movs	r0, #0
 800432e:	f884 303d 	strb.w	r3, [r4, #61]	@ 0x3d
 8004332:	f884 003c 	strb.w	r0, [r4, #60]	@ 0x3c
 8004336:	bd70      	pop	{r4, r5, r6, pc}
 8004338:	40010000 	.word	0x40010000
 800433c:	40010400 	.word	0x40010400
 8004340:	40000400 	.word	0x40000400

08004344 <HAL_TIMEx_CommutCallback>:
 8004344:	4770      	bx	lr

08004346 <HAL_TIMEx_BreakCallback>:
 8004346:	4770      	bx	lr

08004348 <HAL_TIMEx_Break2Callback>:
 8004348:	4770      	bx	lr

0800434a <UART_EndRxTransfer>:
 800434a:	6802      	ldr	r2, [r0, #0]
 800434c:	6813      	ldr	r3, [r2, #0]
 800434e:	f423 7390 	bic.w	r3, r3, #288	@ 0x120
 8004352:	6013      	str	r3, [r2, #0]
 8004354:	6893      	ldr	r3, [r2, #8]
 8004356:	f023 5380 	bic.w	r3, r3, #268435456	@ 0x10000000
 800435a:	f023 0301 	bic.w	r3, r3, #1
 800435e:	6093      	str	r3, [r2, #8]
 8004360:	2320      	movs	r3, #32
 8004362:	f8c0 3084 	str.w	r3, [r0, #132]	@ 0x84
 8004366:	2300      	movs	r3, #0
 8004368:	66c3      	str	r3, [r0, #108]	@ 0x6c
 800436a:	4770      	bx	lr

0800436c <HAL_UART_Receive_IT>:
 800436c:	f8d0 3084 	ldr.w	r3, [r0, #132]	@ 0x84
 8004370:	2b20      	cmp	r3, #32
 8004372:	b510      	push	{r4, lr}
 8004374:	d166      	bne.n	8004444 <HAL_UART_Receive_IT+0xd8>
 8004376:	2900      	cmp	r1, #0
 8004378:	d066      	beq.n	8004448 <HAL_UART_Receive_IT+0xdc>
 800437a:	2a00      	cmp	r2, #0
 800437c:	d064      	beq.n	8004448 <HAL_UART_Receive_IT+0xdc>
 800437e:	6581      	str	r1, [r0, #88]	@ 0x58
 8004380:	6881      	ldr	r1, [r0, #8]
 8004382:	f8a0 205c 	strh.w	r2, [r0, #92]	@ 0x5c
 8004386:	f5b1 5f80 	cmp.w	r1, #4096	@ 0x1000
 800438a:	f8a0 205e 	strh.w	r2, [r0, #94]	@ 0x5e
 800438e:	d131      	bne.n	80043f4 <HAL_UART_Receive_IT+0x88>
 8004390:	6903      	ldr	r3, [r0, #16]
 8004392:	2b00      	cmp	r3, #0
 8004394:	f240 13ff 	movw	r3, #511	@ 0x1ff
 8004398:	bf18      	it	ne
 800439a:	23ff      	movne	r3, #255	@ 0xff
 800439c:	f8a0 3060 	strh.w	r3, [r0, #96]	@ 0x60
 80043a0:	2300      	movs	r3, #0
 80043a2:	f8c0 3088 	str.w	r3, [r0, #136]	@ 0x88
 80043a6:	2322      	movs	r3, #34	@ 0x22
 80043a8:	f8c0 3084 	str.w	r3, [r0, #132]	@ 0x84
 80043ac:	6803      	ldr	r3, [r0, #0]
 80043ae:	689c      	ldr	r4, [r3, #8]
 80043b0:	f044 0401 	orr.w	r4, r4, #1
 80043b4:	609c      	str	r4, [r3, #8]
 80043b6:	6e44      	ldr	r4, [r0, #100]	@ 0x64
 80043b8:	f1b4 5f00 	cmp.w	r4, #536870912	@ 0x20000000
 80043bc:	d12e      	bne.n	800441c <HAL_UART_Receive_IT+0xb0>
 80043be:	f8b0 4068 	ldrh.w	r4, [r0, #104]	@ 0x68
 80043c2:	4294      	cmp	r4, r2
 80043c4:	d82a      	bhi.n	800441c <HAL_UART_Receive_IT+0xb0>
 80043c6:	f5b1 5f80 	cmp.w	r1, #4096	@ 0x1000
 80043ca:	d125      	bne.n	8004418 <HAL_UART_Receive_IT+0xac>
 80043cc:	6904      	ldr	r4, [r0, #16]
 80043ce:	4a1f      	ldr	r2, [pc, #124]	@ (800444c <HAL_UART_Receive_IT+0xe0>)
 80043d0:	491f      	ldr	r1, [pc, #124]	@ (8004450 <HAL_UART_Receive_IT+0xe4>)
 80043d2:	2c00      	cmp	r4, #0
 80043d4:	bf18      	it	ne
 80043d6:	460a      	movne	r2, r1
 80043d8:	66c2      	str	r2, [r0, #108]	@ 0x6c
 80043da:	2200      	movs	r2, #0
 80043dc:	f880 207c 	strb.w	r2, [r0, #124]	@ 0x7c
 80043e0:	681a      	ldr	r2, [r3, #0]
 80043e2:	f442 7280 	orr.w	r2, r2, #256	@ 0x100
 80043e6:	601a      	str	r2, [r3, #0]
 80043e8:	689a      	ldr	r2, [r3, #8]
 80043ea:	f042 5280 	orr.w	r2, r2, #268435456	@ 0x10000000
 80043ee:	609a      	str	r2, [r3, #8]
 80043f0:	2000      	movs	r0, #0
 80043f2:	bd10      	pop	{r4, pc}
 80043f4:	b929      	cbnz	r1, 8004402 <HAL_UART_Receive_IT+0x96>
 80043f6:	6903      	ldr	r3, [r0, #16]
 80043f8:	2b00      	cmp	r3, #0
 80043fa:	bf0c      	ite	eq
 80043fc:	23ff      	moveq	r3, #255	@ 0xff
 80043fe:	237f      	movne	r3, #127	@ 0x7f
 8004400:	e7cc      	b.n	800439c <HAL_UART_Receive_IT+0x30>
 8004402:	f1b1 5f80 	cmp.w	r1, #268435456	@ 0x10000000
 8004406:	d105      	bne.n	8004414 <HAL_UART_Receive_IT+0xa8>
 8004408:	6903      	ldr	r3, [r0, #16]
 800440a:	2b00      	cmp	r3, #0
 800440c:	bf0c      	ite	eq
 800440e:	237f      	moveq	r3, #127	@ 0x7f
 8004410:	233f      	movne	r3, #63	@ 0x3f
 8004412:	e7c3      	b.n	800439c <HAL_UART_Receive_IT+0x30>
 8004414:	2300      	movs	r3, #0
 8004416:	e7c1      	b.n	800439c <HAL_UART_Receive_IT+0x30>
 8004418:	4a0d      	ldr	r2, [pc, #52]	@ (8004450 <HAL_UART_Receive_IT+0xe4>)
 800441a:	e7dd      	b.n	80043d8 <HAL_UART_Receive_IT+0x6c>
 800441c:	f5b1 5f80 	cmp.w	r1, #4096	@ 0x1000
 8004420:	d10e      	bne.n	8004440 <HAL_UART_Receive_IT+0xd4>
 8004422:	6904      	ldr	r4, [r0, #16]
 8004424:	4a0b      	ldr	r2, [pc, #44]	@ (8004454 <HAL_UART_Receive_IT+0xe8>)
 8004426:	490c      	ldr	r1, [pc, #48]	@ (8004458 <HAL_UART_Receive_IT+0xec>)
 8004428:	2c00      	cmp	r4, #0
 800442a:	bf18      	it	ne
 800442c:	460a      	movne	r2, r1
 800442e:	66c2      	str	r2, [r0, #108]	@ 0x6c
 8004430:	2200      	movs	r2, #0
 8004432:	f880 207c 	strb.w	r2, [r0, #124]	@ 0x7c
 8004436:	681a      	ldr	r2, [r3, #0]
 8004438:	f442 7290 	orr.w	r2, r2, #288	@ 0x120
 800443c:	601a      	str	r2, [r3, #0]
 800443e:	e7d7      	b.n	80043f0 <HAL_UART_Receive_IT+0x84>
 8004440:	4a05      	ldr	r2, [pc, #20]	@ (8004458 <HAL_UART_Receive_IT+0xec>)
 8004442:	e7f4      	b.n	800442e <HAL_UART_Receive_IT+0xc2>
 8004444:	2002      	movs	r0, #2
 8004446:	e7d4      	b.n	80043f2 <HAL_UART_Receive_IT+0x86>
 8004448:	2001      	movs	r0, #1
 800444a:	e7d2      	b.n	80043f2 <HAL_UART_Receive_IT+0x86>
 800444c:	080045b9 	.word	0x080045b9
 8004450:	08004515 	.word	0x08004515
 8004454:	080044bb 	.word	0x080044bb
 8004458:	0800445f 	.word	0x0800445f

0800445c <HAL_UART_TxCpltCallback>:
 800445c:	4770      	bx	lr

0800445e <UART_RxISR_8BIT>:
 800445e:	f8d0 1084 	ldr.w	r1, [r0, #132]	@ 0x84
 8004462:	6802      	ldr	r2, [r0, #0]
 8004464:	2922      	cmp	r1, #34	@ 0x22
 8004466:	b510      	push	{r4, lr}
 8004468:	f8b0 4060 	ldrh.w	r4, [r0, #96]	@ 0x60
 800446c:	d120      	bne.n	80044b0 <UART_RxISR_8BIT+0x52>
 800446e:	6a52      	ldr	r2, [r2, #36]	@ 0x24
 8004470:	6d81      	ldr	r1, [r0, #88]	@ 0x58
 8004472:	4022      	ands	r2, r4
 8004474:	700a      	strb	r2, [r1, #0]
 8004476:	6d82      	ldr	r2, [r0, #88]	@ 0x58
 8004478:	3201      	adds	r2, #1
 800447a:	6582      	str	r2, [r0, #88]	@ 0x58
 800447c:	f8b0 205e 	ldrh.w	r2, [r0, #94]	@ 0x5e
 8004480:	3a01      	subs	r2, #1
 8004482:	b292      	uxth	r2, r2
 8004484:	f8a0 205e 	strh.w	r2, [r0, #94]	@ 0x5e
 8004488:	f8b0 205e 	ldrh.w	r2, [r0, #94]	@ 0x5e
 800448c:	b292      	uxth	r2, r2
 800448e:	b972      	cbnz	r2, 80044ae <UART_RxISR_8BIT+0x50>
 8004490:	6801      	ldr	r1, [r0, #0]
 8004492:	680c      	ldr	r4, [r1, #0]
 8004494:	f424 7490 	bic.w	r4, r4, #288	@ 0x120
 8004498:	600c      	str	r4, [r1, #0]
 800449a:	688c      	ldr	r4, [r1, #8]
 800449c:	f024 0401 	bic.w	r4, r4, #1
 80044a0:	608c      	str	r4, [r1, #8]
 80044a2:	2120      	movs	r1, #32
 80044a4:	66c2      	str	r2, [r0, #108]	@ 0x6c
 80044a6:	f8c0 1084 	str.w	r1, [r0, #132]	@ 0x84
 80044aa:	f7fc fa5b 	bl	8000964 <HAL_UART_RxCpltCallback>
 80044ae:	bd10      	pop	{r4, pc}
 80044b0:	6993      	ldr	r3, [r2, #24]
 80044b2:	f043 0308 	orr.w	r3, r3, #8
 80044b6:	6193      	str	r3, [r2, #24]
 80044b8:	e7f9      	b.n	80044ae <UART_RxISR_8BIT+0x50>

080044ba <UART_RxISR_16BIT>:
 80044ba:	f8d0 1084 	ldr.w	r1, [r0, #132]	@ 0x84
 80044be:	6802      	ldr	r2, [r0, #0]
 80044c0:	2922      	cmp	r1, #34	@ 0x22
 80044c2:	b510      	push	{r4, lr}
 80044c4:	f8b0 4060 	ldrh.w	r4, [r0, #96]	@ 0x60
 80044c8:	d11e      	bne.n	8004508 <UART_RxISR_16BIT+0x4e>
 80044ca:	6a51      	ldr	r1, [r2, #36]	@ 0x24
 80044cc:	400c      	ands	r4, r1
 80044ce:	6d81      	ldr	r1, [r0, #88]	@ 0x58
 80044d0:	f821 4b02 	strh.w	r4, [r1], #2
 80044d4:	6581      	str	r1, [r0, #88]	@ 0x58
 80044d6:	f8b0 105e 	ldrh.w	r1, [r0, #94]	@ 0x5e
 80044da:	3901      	subs	r1, #1
 80044dc:	b289      	uxth	r1, r1
 80044de:	f8a0 105e 	strh.w	r1, [r0, #94]	@ 0x5e
 80044e2:	f8b0 105e 	ldrh.w	r1, [r0, #94]	@ 0x5e
 80044e6:	b289      	uxth	r1, r1
 80044e8:	b969      	cbnz	r1, 8004506 <UART_RxISR_16BIT+0x4c>
 80044ea:	6814      	ldr	r4, [r2, #0]
 80044ec:	f424 7490 	bic.w	r4, r4, #288	@ 0x120
 80044f0:	6014      	str	r4, [r2, #0]
 80044f2:	6894      	ldr	r4, [r2, #8]
 80044f4:	f024 0401 	bic.w	r4, r4, #1
 80044f8:	6094      	str	r4, [r2, #8]
 80044fa:	2220      	movs	r2, #32
 80044fc:	66c1      	str	r1, [r0, #108]	@ 0x6c
 80044fe:	f8c0 2084 	str.w	r2, [r0, #132]	@ 0x84
 8004502:	f7fc fa2f 	bl	8000964 <HAL_UART_RxCpltCallback>
 8004506:	bd10      	pop	{r4, pc}
 8004508:	6993      	ldr	r3, [r2, #24]
 800450a:	f043 0308 	orr.w	r3, r3, #8
 800450e:	6193      	str	r3, [r2, #24]
 8004510:	e7f9      	b.n	8004506 <UART_RxISR_16BIT+0x4c>
	...

08004514 <UART_RxISR_8BIT_FIFOEN>:
 8004514:	f8d0 3084 	ldr.w	r3, [r0, #132]	@ 0x84
 8004518:	2b22      	cmp	r3, #34	@ 0x22
 800451a:	e92d 41f0 	stmdb	sp!, {r4, r5, r6, r7, r8, lr}
 800451e:	4604      	mov	r4, r0
 8004520:	f8b0 6060 	ldrh.w	r6, [r0, #96]	@ 0x60
 8004524:	d13d      	bne.n	80045a2 <UART_RxISR_8BIT_FIFOEN+0x8e>
 8004526:	f8b0 5068 	ldrh.w	r5, [r0, #104]	@ 0x68
 800452a:	f04f 0820 	mov.w	r8, #32
 800452e:	4f20      	ldr	r7, [pc, #128]	@ (80045b0 <UART_RxISR_8BIT_FIFOEN+0x9c>)
 8004530:	b9a5      	cbnz	r5, 800455c <UART_RxISR_8BIT_FIFOEN+0x48>
 8004532:	f8b4 305e 	ldrh.w	r3, [r4, #94]	@ 0x5e
 8004536:	b29b      	uxth	r3, r3
 8004538:	b173      	cbz	r3, 8004558 <UART_RxISR_8BIT_FIFOEN+0x44>
 800453a:	f8b4 2068 	ldrh.w	r2, [r4, #104]	@ 0x68
 800453e:	429a      	cmp	r2, r3
 8004540:	d90a      	bls.n	8004558 <UART_RxISR_8BIT_FIFOEN+0x44>
 8004542:	6823      	ldr	r3, [r4, #0]
 8004544:	689a      	ldr	r2, [r3, #8]
 8004546:	f022 5280 	bic.w	r2, r2, #268435456	@ 0x10000000
 800454a:	609a      	str	r2, [r3, #8]
 800454c:	4a19      	ldr	r2, [pc, #100]	@ (80045b4 <UART_RxISR_8BIT_FIFOEN+0xa0>)
 800454e:	66e2      	str	r2, [r4, #108]	@ 0x6c
 8004550:	681a      	ldr	r2, [r3, #0]
 8004552:	f042 0220 	orr.w	r2, r2, #32
 8004556:	601a      	str	r2, [r3, #0]
 8004558:	e8bd 81f0 	ldmia.w	sp!, {r4, r5, r6, r7, r8, pc}
 800455c:	6823      	ldr	r3, [r4, #0]
 800455e:	6da2      	ldr	r2, [r4, #88]	@ 0x58
 8004560:	6a5b      	ldr	r3, [r3, #36]	@ 0x24
 8004562:	4033      	ands	r3, r6
 8004564:	7013      	strb	r3, [r2, #0]
 8004566:	6da3      	ldr	r3, [r4, #88]	@ 0x58
 8004568:	3301      	adds	r3, #1
 800456a:	65a3      	str	r3, [r4, #88]	@ 0x58
 800456c:	f8b4 305e 	ldrh.w	r3, [r4, #94]	@ 0x5e
 8004570:	3b01      	subs	r3, #1
 8004572:	b29b      	uxth	r3, r3
 8004574:	f8a4 305e 	strh.w	r3, [r4, #94]	@ 0x5e
 8004578:	f8b4 305e 	ldrh.w	r3, [r4, #94]	@ 0x5e
 800457c:	b29b      	uxth	r3, r3
 800457e:	b96b      	cbnz	r3, 800459c <UART_RxISR_8BIT_FIFOEN+0x88>
 8004580:	6822      	ldr	r2, [r4, #0]
 8004582:	4620      	mov	r0, r4
 8004584:	6811      	ldr	r1, [r2, #0]
 8004586:	f421 7180 	bic.w	r1, r1, #256	@ 0x100
 800458a:	6011      	str	r1, [r2, #0]
 800458c:	6891      	ldr	r1, [r2, #8]
 800458e:	4039      	ands	r1, r7
 8004590:	6091      	str	r1, [r2, #8]
 8004592:	f8c4 8084 	str.w	r8, [r4, #132]	@ 0x84
 8004596:	66e3      	str	r3, [r4, #108]	@ 0x6c
 8004598:	f7fc f9e4 	bl	8000964 <HAL_UART_RxCpltCallback>
 800459c:	3d01      	subs	r5, #1
 800459e:	b2ad      	uxth	r5, r5
 80045a0:	e7c6      	b.n	8004530 <UART_RxISR_8BIT_FIFOEN+0x1c>
 80045a2:	6802      	ldr	r2, [r0, #0]
 80045a4:	6993      	ldr	r3, [r2, #24]
 80045a6:	f043 0308 	orr.w	r3, r3, #8
 80045aa:	6193      	str	r3, [r2, #24]
 80045ac:	e7d4      	b.n	8004558 <UART_RxISR_8BIT_FIFOEN+0x44>
 80045ae:	bf00      	nop
 80045b0:	effffffe 	.word	0xeffffffe
 80045b4:	0800445f 	.word	0x0800445f

080045b8 <UART_RxISR_16BIT_FIFOEN>:
 80045b8:	f8d0 3084 	ldr.w	r3, [r0, #132]	@ 0x84
 80045bc:	2b22      	cmp	r3, #34	@ 0x22
 80045be:	e92d 41f0 	stmdb	sp!, {r4, r5, r6, r7, r8, lr}
 80045c2:	4604      	mov	r4, r0
 80045c4:	f8b0 6060 	ldrh.w	r6, [r0, #96]	@ 0x60
 80045c8:	d13b      	bne.n	8004642 <UART_RxISR_16BIT_FIFOEN+0x8a>
 80045ca:	f8b0 5068 	ldrh.w	r5, [r0, #104]	@ 0x68
 80045ce:	f04f 0820 	mov.w	r8, #32
 80045d2:	4f1f      	ldr	r7, [pc, #124]	@ (8004650 <UART_RxISR_16BIT_FIFOEN+0x98>)
 80045d4:	b9a5      	cbnz	r5, 8004600 <UART_RxISR_16BIT_FIFOEN+0x48>
 80045d6:	f8b4 305e 	ldrh.w	r3, [r4, #94]	@ 0x5e
 80045da:	b29b      	uxth	r3, r3
 80045dc:	b173      	cbz	r3, 80045fc <UART_RxISR_16BIT_FIFOEN+0x44>
 80045de:	f8b4 2068 	ldrh.w	r2, [r4, #104]	@ 0x68
 80045e2:	429a      	cmp	r2, r3
 80045e4:	d90a      	bls.n	80045fc <UART_RxISR_16BIT_FIFOEN+0x44>
 80045e6:	6823      	ldr	r3, [r4, #0]
 80045e8:	689a      	ldr	r2, [r3, #8]
 80045ea:	f022 5280 	bic.w	r2, r2, #268435456	@ 0x10000000
 80045ee:	609a      	str	r2, [r3, #8]
 80045f0:	4a18      	ldr	r2, [pc, #96]	@ (8004654 <UART_RxISR_16BIT_FIFOEN+0x9c>)
 80045f2:	66e2      	str	r2, [r4, #108]	@ 0x6c
 80045f4:	681a      	ldr	r2, [r3, #0]
 80045f6:	f042 0220 	orr.w	r2, r2, #32
 80045fa:	601a      	str	r2, [r3, #0]
 80045fc:	e8bd 81f0 	ldmia.w	sp!, {r4, r5, r6, r7, r8, pc}
 8004600:	6823      	ldr	r3, [r4, #0]
 8004602:	6da2      	ldr	r2, [r4, #88]	@ 0x58
 8004604:	6a59      	ldr	r1, [r3, #36]	@ 0x24
 8004606:	4031      	ands	r1, r6
 8004608:	f822 1b02 	strh.w	r1, [r2], #2
 800460c:	65a2      	str	r2, [r4, #88]	@ 0x58
 800460e:	f8b4 205e 	ldrh.w	r2, [r4, #94]	@ 0x5e
 8004612:	3a01      	subs	r2, #1
 8004614:	b292      	uxth	r2, r2
 8004616:	f8a4 205e 	strh.w	r2, [r4, #94]	@ 0x5e
 800461a:	f8b4 205e 	ldrh.w	r2, [r4, #94]	@ 0x5e
 800461e:	b292      	uxth	r2, r2
 8004620:	b962      	cbnz	r2, 800463c <UART_RxISR_16BIT_FIFOEN+0x84>
 8004622:	6819      	ldr	r1, [r3, #0]
 8004624:	4620      	mov	r0, r4
 8004626:	f421 7180 	bic.w	r1, r1, #256	@ 0x100
 800462a:	6019      	str	r1, [r3, #0]
 800462c:	6899      	ldr	r1, [r3, #8]
 800462e:	4039      	ands	r1, r7
 8004630:	6099      	str	r1, [r3, #8]
 8004632:	f8c4 8084 	str.w	r8, [r4, #132]	@ 0x84
 8004636:	66e2      	str	r2, [r4, #108]	@ 0x6c
 8004638:	f7fc f994 	bl	8000964 <HAL_UART_RxCpltCallback>
 800463c:	3d01      	subs	r5, #1
 800463e:	b2ad      	uxth	r5, r5
 8004640:	e7c8      	b.n	80045d4 <UART_RxISR_16BIT_FIFOEN+0x1c>
 8004642:	6802      	ldr	r2, [r0, #0]
 8004644:	6993      	ldr	r3, [r2, #24]
 8004646:	f043 0308 	orr.w	r3, r3, #8
 800464a:	6193      	str	r3, [r2, #24]
 800464c:	e7d6      	b.n	80045fc <UART_RxISR_16BIT_FIFOEN+0x44>
 800464e:	bf00      	nop
 8004650:	effffffe 	.word	0xeffffffe
 8004654:	080044bb 	.word	0x080044bb

08004658 <HAL_UART_ErrorCallback>:
 8004658:	4770      	bx	lr
	...

0800465c <HAL_UART_IRQHandler>:
 800465c:	6801      	ldr	r1, [r0, #0]
 800465e:	e92d 41f0 	stmdb	sp!, {r4, r5, r6, r7, r8, lr}
 8004662:	69ca      	ldr	r2, [r1, #28]
 8004664:	f640 060f 	movw	r6, #2063	@ 0x80f
 8004668:	680b      	ldr	r3, [r1, #0]
 800466a:	4604      	mov	r4, r0
 800466c:	4232      	tst	r2, r6
 800466e:	688d      	ldr	r5, [r1, #8]
 8004670:	d10f      	bne.n	8004692 <HAL_UART_IRQHandler+0x36>
 8004672:	0696      	lsls	r6, r2, #26
 8004674:	f140 808a 	bpl.w	800478c <HAL_UART_IRQHandler+0x130>
 8004678:	f003 0620 	and.w	r6, r3, #32
 800467c:	f005 5780 	and.w	r7, r5, #268435456	@ 0x10000000
 8004680:	433e      	orrs	r6, r7
 8004682:	f000 8083 	beq.w	800478c <HAL_UART_IRQHandler+0x130>
 8004686:	6ec3      	ldr	r3, [r0, #108]	@ 0x6c
 8004688:	2b00      	cmp	r3, #0
 800468a:	d078      	beq.n	800477e <HAL_UART_IRQHandler+0x122>
 800468c:	e8bd 41f0 	ldmia.w	sp!, {r4, r5, r6, r7, r8, lr}
 8004690:	4718      	bx	r3
 8004692:	4e5c      	ldr	r6, [pc, #368]	@ (8004804 <HAL_UART_IRQHandler+0x1a8>)
 8004694:	485c      	ldr	r0, [pc, #368]	@ (8004808 <HAL_UART_IRQHandler+0x1ac>)
 8004696:	402e      	ands	r6, r5
 8004698:	4018      	ands	r0, r3
 800469a:	4330      	orrs	r0, r6
 800469c:	d076      	beq.n	800478c <HAL_UART_IRQHandler+0x130>
 800469e:	07d7      	lsls	r7, r2, #31
 80046a0:	d509      	bpl.n	80046b6 <HAL_UART_IRQHandler+0x5a>
 80046a2:	05d8      	lsls	r0, r3, #23
 80046a4:	d507      	bpl.n	80046b6 <HAL_UART_IRQHandler+0x5a>
 80046a6:	2001      	movs	r0, #1
 80046a8:	6208      	str	r0, [r1, #32]
 80046aa:	f8d4 0088 	ldr.w	r0, [r4, #136]	@ 0x88
 80046ae:	f040 0001 	orr.w	r0, r0, #1
 80046b2:	f8c4 0088 	str.w	r0, [r4, #136]	@ 0x88
 80046b6:	0797      	lsls	r7, r2, #30
 80046b8:	d509      	bpl.n	80046ce <HAL_UART_IRQHandler+0x72>
 80046ba:	07e8      	lsls	r0, r5, #31
 80046bc:	d507      	bpl.n	80046ce <HAL_UART_IRQHandler+0x72>
 80046be:	2002      	movs	r0, #2
 80046c0:	6208      	str	r0, [r1, #32]
 80046c2:	f8d4 0088 	ldr.w	r0, [r4, #136]	@ 0x88
 80046c6:	f040 0004 	orr.w	r0, r0, #4
 80046ca:	f8c4 0088 	str.w	r0, [r4, #136]	@ 0x88
 80046ce:	0757      	lsls	r7, r2, #29
 80046d0:	d509      	bpl.n	80046e6 <HAL_UART_IRQHandler+0x8a>
 80046d2:	07e8      	lsls	r0, r5, #31
 80046d4:	d507      	bpl.n	80046e6 <HAL_UART_IRQHandler+0x8a>
 80046d6:	2004      	movs	r0, #4
 80046d8:	6208      	str	r0, [r1, #32]
 80046da:	f8d4 0088 	ldr.w	r0, [r4, #136]	@ 0x88
 80046de:	f040 0002 	orr.w	r0, r0, #2
 80046e2:	f8c4 0088 	str.w	r0, [r4, #136]	@ 0x88
 80046e6:	0717      	lsls	r7, r2, #28
 80046e8:	d50b      	bpl.n	8004702 <HAL_UART_IRQHandler+0xa6>
 80046ea:	f003 0020 	and.w	r0, r3, #32
 80046ee:	4330      	orrs	r0, r6
 80046f0:	d007      	beq.n	8004702 <HAL_UART_IRQHandler+0xa6>
 80046f2:	2008      	movs	r0, #8
 80046f4:	6208      	str	r0, [r1, #32]
 80046f6:	f8d4 0088 	ldr.w	r0, [r4, #136]	@ 0x88
 80046fa:	f040 0008 	orr.w	r0, r0, #8
 80046fe:	f8c4 0088 	str.w	r0, [r4, #136]	@ 0x88
 8004702:	0516      	lsls	r6, r2, #20
 8004704:	d50a      	bpl.n	800471c <HAL_UART_IRQHandler+0xc0>
 8004706:	0158      	lsls	r0, r3, #5
 8004708:	d508      	bpl.n	800471c <HAL_UART_IRQHandler+0xc0>
 800470a:	f44f 6000 	mov.w	r0, #2048	@ 0x800
 800470e:	6208      	str	r0, [r1, #32]
 8004710:	f8d4 1088 	ldr.w	r1, [r4, #136]	@ 0x88
 8004714:	f041 0120 	orr.w	r1, r1, #32
 8004718:	f8c4 1088 	str.w	r1, [r4, #136]	@ 0x88
 800471c:	f8d4 1088 	ldr.w	r1, [r4, #136]	@ 0x88
 8004720:	b369      	cbz	r1, 800477e <HAL_UART_IRQHandler+0x122>
 8004722:	0692      	lsls	r2, r2, #26
 8004724:	d509      	bpl.n	800473a <HAL_UART_IRQHandler+0xde>
 8004726:	f003 0320 	and.w	r3, r3, #32
 800472a:	f005 5580 	and.w	r5, r5, #268435456	@ 0x10000000
 800472e:	432b      	orrs	r3, r5
 8004730:	d003      	beq.n	800473a <HAL_UART_IRQHandler+0xde>
 8004732:	6ee3      	ldr	r3, [r4, #108]	@ 0x6c
 8004734:	b10b      	cbz	r3, 800473a <HAL_UART_IRQHandler+0xde>
 8004736:	4620      	mov	r0, r4
 8004738:	4798      	blx	r3
 800473a:	6821      	ldr	r1, [r4, #0]
 800473c:	4620      	mov	r0, r4
 800473e:	f8d4 2088 	ldr.w	r2, [r4, #136]	@ 0x88
 8004742:	688b      	ldr	r3, [r1, #8]
 8004744:	f002 0228 	and.w	r2, r2, #40	@ 0x28
 8004748:	f003 0340 	and.w	r3, r3, #64	@ 0x40
 800474c:	ea53 0502 	orrs.w	r5, r3, r2
 8004750:	d017      	beq.n	8004782 <HAL_UART_IRQHandler+0x126>
 8004752:	f7ff fdfa 	bl	800434a <UART_EndRxTransfer>
 8004756:	688b      	ldr	r3, [r1, #8]
 8004758:	065f      	lsls	r7, r3, #25
 800475a:	d50d      	bpl.n	8004778 <HAL_UART_IRQHandler+0x11c>
 800475c:	688b      	ldr	r3, [r1, #8]
 800475e:	6fa0      	ldr	r0, [r4, #120]	@ 0x78
 8004760:	f023 0340 	bic.w	r3, r3, #64	@ 0x40
 8004764:	608b      	str	r3, [r1, #8]
 8004766:	b138      	cbz	r0, 8004778 <HAL_UART_IRQHandler+0x11c>
 8004768:	4b28      	ldr	r3, [pc, #160]	@ (800480c <HAL_UART_IRQHandler+0x1b0>)
 800476a:	6503      	str	r3, [r0, #80]	@ 0x50
 800476c:	f7fd f8ac 	bl	80018c8 <HAL_DMA_Abort_IT>
 8004770:	b128      	cbz	r0, 800477e <HAL_UART_IRQHandler+0x122>
 8004772:	6fa0      	ldr	r0, [r4, #120]	@ 0x78
 8004774:	6d03      	ldr	r3, [r0, #80]	@ 0x50
 8004776:	e789      	b.n	800468c <HAL_UART_IRQHandler+0x30>
 8004778:	4620      	mov	r0, r4
 800477a:	f7ff ff6d 	bl	8004658 <HAL_UART_ErrorCallback>
 800477e:	e8bd 81f0 	ldmia.w	sp!, {r4, r5, r6, r7, r8, pc}
 8004782:	f7ff ff69 	bl	8004658 <HAL_UART_ErrorCallback>
 8004786:	f8c4 5088 	str.w	r5, [r4, #136]	@ 0x88
 800478a:	e7f8      	b.n	800477e <HAL_UART_IRQHandler+0x122>
 800478c:	02d6      	lsls	r6, r2, #11
 800478e:	d509      	bpl.n	80047a4 <HAL_UART_IRQHandler+0x148>
 8004790:	0268      	lsls	r0, r5, #9
 8004792:	d507      	bpl.n	80047a4 <HAL_UART_IRQHandler+0x148>
 8004794:	f44f 1380 	mov.w	r3, #1048576	@ 0x100000
 8004798:	4620      	mov	r0, r4
 800479a:	620b      	str	r3, [r1, #32]
 800479c:	e8bd 41f0 	ldmia.w	sp!, {r4, r5, r6, r7, r8, lr}
 80047a0:	f000 bb9b 	b.w	8004eda <HAL_UARTEx_WakeupCallback>
 80047a4:	0617      	lsls	r7, r2, #24
 80047a6:	d50a      	bpl.n	80047be <HAL_UART_IRQHandler+0x162>
 80047a8:	f003 0080 	and.w	r0, r3, #128	@ 0x80
 80047ac:	f405 0500 	and.w	r5, r5, #8388608	@ 0x800000
 80047b0:	4328      	orrs	r0, r5
 80047b2:	d004      	beq.n	80047be <HAL_UART_IRQHandler+0x162>
 80047b4:	6f23      	ldr	r3, [r4, #112]	@ 0x70
 80047b6:	2b00      	cmp	r3, #0
 80047b8:	d0e1      	beq.n	800477e <HAL_UART_IRQHandler+0x122>
 80047ba:	4620      	mov	r0, r4
 80047bc:	e766      	b.n	800468c <HAL_UART_IRQHandler+0x30>
 80047be:	0656      	lsls	r6, r2, #25
 80047c0:	d50e      	bpl.n	80047e0 <HAL_UART_IRQHandler+0x184>
 80047c2:	065d      	lsls	r5, r3, #25
 80047c4:	d50c      	bpl.n	80047e0 <HAL_UART_IRQHandler+0x184>
 80047c6:	680b      	ldr	r3, [r1, #0]
 80047c8:	4620      	mov	r0, r4
 80047ca:	f023 0340 	bic.w	r3, r3, #64	@ 0x40
 80047ce:	600b      	str	r3, [r1, #0]
 80047d0:	2320      	movs	r3, #32
 80047d2:	f8c4 3080 	str.w	r3, [r4, #128]	@ 0x80
 80047d6:	2300      	movs	r3, #0
 80047d8:	6723      	str	r3, [r4, #112]	@ 0x70
 80047da:	f7ff fe3f 	bl	800445c <HAL_UART_TxCpltCallback>
 80047de:	e7ce      	b.n	800477e <HAL_UART_IRQHandler+0x122>
 80047e0:	0210      	lsls	r0, r2, #8
 80047e2:	d506      	bpl.n	80047f2 <HAL_UART_IRQHandler+0x196>
 80047e4:	0059      	lsls	r1, r3, #1
 80047e6:	d504      	bpl.n	80047f2 <HAL_UART_IRQHandler+0x196>
 80047e8:	4620      	mov	r0, r4
 80047ea:	e8bd 41f0 	ldmia.w	sp!, {r4, r5, r6, r7, r8, lr}
 80047ee:	f000 bb76 	b.w	8004ede <HAL_UARTEx_TxFifoEmptyCallback>
 80047f2:	01d2      	lsls	r2, r2, #7
 80047f4:	d5c3      	bpl.n	800477e <HAL_UART_IRQHandler+0x122>
 80047f6:	2b00      	cmp	r3, #0
 80047f8:	dac1      	bge.n	800477e <HAL_UART_IRQHandler+0x122>
 80047fa:	4620      	mov	r0, r4
 80047fc:	e8bd 41f0 	ldmia.w	sp!, {r4, r5, r6, r7, r8, lr}
 8004800:	f000 bb6c 	b.w	8004edc <HAL_UARTEx_RxFifoFullCallback>
 8004804:	10000001 	.word	0x10000001
 8004808:	04000120 	.word	0x04000120
 800480c:	08004811 	.word	0x08004811

08004810 <UART_DMAAbortOnError>:
 8004810:	b508      	push	{r3, lr}
 8004812:	6b80      	ldr	r0, [r0, #56]	@ 0x38
 8004814:	2300      	movs	r3, #0
 8004816:	f8a0 305e 	strh.w	r3, [r0, #94]	@ 0x5e
 800481a:	f8a0 3056 	strh.w	r3, [r0, #86]	@ 0x56
 800481e:	f7ff ff1b 	bl	8004658 <HAL_UART_ErrorCallback>
 8004822:	bd08      	pop	{r3, pc}

08004824 <UART_SetConfig>:
 8004824:	6882      	ldr	r2, [r0, #8]
 8004826:	6901      	ldr	r1, [r0, #16]
 8004828:	69c3      	ldr	r3, [r0, #28]
 800482a:	4311      	orrs	r1, r2
 800482c:	6942      	ldr	r2, [r0, #20]
 800482e:	4311      	orrs	r1, r2
 8004830:	6802      	ldr	r2, [r0, #0]
 8004832:	b530      	push	{r4, r5, lr}
 8004834:	4319      	orrs	r1, r3
 8004836:	4604      	mov	r4, r0
 8004838:	6e40      	ldr	r0, [r0, #100]	@ 0x64
 800483a:	b087      	sub	sp, #28
 800483c:	6815      	ldr	r5, [r2, #0]
 800483e:	4301      	orrs	r1, r0
 8004840:	48a5      	ldr	r0, [pc, #660]	@ (8004ad8 <UART_SetConfig+0x2b4>)
 8004842:	4028      	ands	r0, r5
 8004844:	4301      	orrs	r1, r0
 8004846:	68e0      	ldr	r0, [r4, #12]
 8004848:	6011      	str	r1, [r2, #0]
 800484a:	6851      	ldr	r1, [r2, #4]
 800484c:	f421 5140 	bic.w	r1, r1, #12288	@ 0x3000
 8004850:	4301      	orrs	r1, r0
 8004852:	69a0      	ldr	r0, [r4, #24]
 8004854:	6051      	str	r1, [r2, #4]
 8004856:	49a1      	ldr	r1, [pc, #644]	@ (8004adc <UART_SetConfig+0x2b8>)
 8004858:	428a      	cmp	r2, r1
 800485a:	bf1c      	itt	ne
 800485c:	6a21      	ldrne	r1, [r4, #32]
 800485e:	4308      	orrne	r0, r1
 8004860:	6891      	ldr	r1, [r2, #8]
 8004862:	f021 416e 	bic.w	r1, r1, #3992977408	@ 0xee000000
 8004866:	f421 6130 	bic.w	r1, r1, #2816	@ 0xb00
 800486a:	4301      	orrs	r1, r0
 800486c:	6a60      	ldr	r0, [r4, #36]	@ 0x24
 800486e:	6091      	str	r1, [r2, #8]
 8004870:	6ad1      	ldr	r1, [r2, #44]	@ 0x2c
 8004872:	f021 010f 	bic.w	r1, r1, #15
 8004876:	4301      	orrs	r1, r0
 8004878:	62d1      	str	r1, [r2, #44]	@ 0x2c
 800487a:	4999      	ldr	r1, [pc, #612]	@ (8004ae0 <UART_SetConfig+0x2bc>)
 800487c:	428a      	cmp	r2, r1
 800487e:	d112      	bne.n	80048a6 <UART_SetConfig+0x82>
 8004880:	4a98      	ldr	r2, [pc, #608]	@ (8004ae4 <UART_SetConfig+0x2c0>)
 8004882:	6d52      	ldr	r2, [r2, #84]	@ 0x54
 8004884:	f002 0238 	and.w	r2, r2, #56	@ 0x38
 8004888:	2a18      	cmp	r2, #24
 800488a:	f000 8102 	beq.w	8004a92 <UART_SetConfig+0x26e>
 800488e:	d83b      	bhi.n	8004908 <UART_SetConfig+0xe4>
 8004890:	2a08      	cmp	r2, #8
 8004892:	f000 80f6 	beq.w	8004a82 <UART_SetConfig+0x25e>
 8004896:	2a10      	cmp	r2, #16
 8004898:	f000 8141 	beq.w	8004b1e <UART_SetConfig+0x2fa>
 800489c:	2a00      	cmp	r2, #0
 800489e:	f000 80ea 	beq.w	8004a76 <UART_SetConfig+0x252>
 80048a2:	2001      	movs	r0, #1
 80048a4:	e06a      	b.n	800497c <UART_SetConfig+0x158>
 80048a6:	4990      	ldr	r1, [pc, #576]	@ (8004ae8 <UART_SetConfig+0x2c4>)
 80048a8:	428a      	cmp	r2, r1
 80048aa:	d10d      	bne.n	80048c8 <UART_SetConfig+0xa4>
 80048ac:	4a8d      	ldr	r2, [pc, #564]	@ (8004ae4 <UART_SetConfig+0x2c0>)
 80048ae:	6d52      	ldr	r2, [r2, #84]	@ 0x54
 80048b0:	f002 0207 	and.w	r2, r2, #7
 80048b4:	2a05      	cmp	r2, #5
 80048b6:	d8f4      	bhi.n	80048a2 <UART_SetConfig+0x7e>
 80048b8:	e8df f012 	tbh	[pc, r2, lsl #1]
 80048bc:	00e3007e 	.word	0x00e3007e
 80048c0:	00eb0131 	.word	0x00eb0131
 80048c4:	002b012c 	.word	0x002b012c
 80048c8:	4988      	ldr	r1, [pc, #544]	@ (8004aec <UART_SetConfig+0x2c8>)
 80048ca:	428a      	cmp	r2, r1
 80048cc:	d0ee      	beq.n	80048ac <UART_SetConfig+0x88>
 80048ce:	4988      	ldr	r1, [pc, #544]	@ (8004af0 <UART_SetConfig+0x2cc>)
 80048d0:	428a      	cmp	r2, r1
 80048d2:	d0eb      	beq.n	80048ac <UART_SetConfig+0x88>
 80048d4:	4987      	ldr	r1, [pc, #540]	@ (8004af4 <UART_SetConfig+0x2d0>)
 80048d6:	428a      	cmp	r2, r1
 80048d8:	d0e8      	beq.n	80048ac <UART_SetConfig+0x88>
 80048da:	4987      	ldr	r1, [pc, #540]	@ (8004af8 <UART_SetConfig+0x2d4>)
 80048dc:	428a      	cmp	r2, r1
 80048de:	d0cf      	beq.n	8004880 <UART_SetConfig+0x5c>
 80048e0:	4986      	ldr	r1, [pc, #536]	@ (8004afc <UART_SetConfig+0x2d8>)
 80048e2:	428a      	cmp	r2, r1
 80048e4:	d0e2      	beq.n	80048ac <UART_SetConfig+0x88>
 80048e6:	4986      	ldr	r1, [pc, #536]	@ (8004b00 <UART_SetConfig+0x2dc>)
 80048e8:	428a      	cmp	r2, r1
 80048ea:	d0df      	beq.n	80048ac <UART_SetConfig+0x88>
 80048ec:	4b7b      	ldr	r3, [pc, #492]	@ (8004adc <UART_SetConfig+0x2b8>)
 80048ee:	429a      	cmp	r2, r3
 80048f0:	d1d7      	bne.n	80048a2 <UART_SetConfig+0x7e>
 80048f2:	4a7c      	ldr	r2, [pc, #496]	@ (8004ae4 <UART_SetConfig+0x2c0>)
 80048f4:	6d93      	ldr	r3, [r2, #88]	@ 0x58
 80048f6:	f003 0307 	and.w	r3, r3, #7
 80048fa:	2b05      	cmp	r3, #5
 80048fc:	d8d1      	bhi.n	80048a2 <UART_SetConfig+0x7e>
 80048fe:	e8df f003 	tbb	[pc, r3]
 8004902:	4538      	.short	0x4538
 8004904:	0f594f4a 	.word	0x0f594f4a
 8004908:	2a20      	cmp	r2, #32
 800490a:	f000 8103 	beq.w	8004b14 <UART_SetConfig+0x2f0>
 800490e:	2a28      	cmp	r2, #40	@ 0x28
 8004910:	d1c7      	bne.n	80048a2 <UART_SetConfig+0x7e>
 8004912:	f5b3 4f00 	cmp.w	r3, #32768	@ 0x8000
 8004916:	f000 808a 	beq.w	8004a2e <UART_SetConfig+0x20a>
 800491a:	f44f 4000 	mov.w	r0, #32768	@ 0x8000
 800491e:	e0c5      	b.n	8004aac <UART_SetConfig+0x288>
 8004920:	f44f 4000 	mov.w	r0, #32768	@ 0x8000
 8004924:	4b77      	ldr	r3, [pc, #476]	@ (8004b04 <UART_SetConfig+0x2e0>)
 8004926:	6a62      	ldr	r2, [r4, #36]	@ 0x24
 8004928:	6865      	ldr	r5, [r4, #4]
 800492a:	f833 2012 	ldrh.w	r2, [r3, r2, lsl #1]
 800492e:	eb05 0145 	add.w	r1, r5, r5, lsl #1
 8004932:	fbb0 f3f2 	udiv	r3, r0, r2
 8004936:	4299      	cmp	r1, r3
 8004938:	d8b3      	bhi.n	80048a2 <UART_SetConfig+0x7e>
 800493a:	ebb3 3f05 	cmp.w	r3, r5, lsl #12
 800493e:	d8b0      	bhi.n	80048a2 <UART_SetConfig+0x7e>
 8004940:	2300      	movs	r3, #0
 8004942:	4619      	mov	r1, r3
 8004944:	f7fb fcc8 	bl	80002d8 <__aeabi_uldivmod>
 8004948:	462a      	mov	r2, r5
 800494a:	0209      	lsls	r1, r1, #8
 800494c:	086b      	lsrs	r3, r5, #1
 800494e:	ea41 6110 	orr.w	r1, r1, r0, lsr #24
 8004952:	0200      	lsls	r0, r0, #8
 8004954:	18c0      	adds	r0, r0, r3
 8004956:	f04f 0300 	mov.w	r3, #0
 800495a:	f141 0100 	adc.w	r1, r1, #0
 800495e:	f7fb fcbb 	bl	80002d8 <__aeabi_uldivmod>
 8004962:	4b69      	ldr	r3, [pc, #420]	@ (8004b08 <UART_SetConfig+0x2e4>)
 8004964:	f5a0 7240 	sub.w	r2, r0, #768	@ 0x300
 8004968:	429a      	cmp	r2, r3
 800496a:	d89a      	bhi.n	80048a2 <UART_SetConfig+0x7e>
 800496c:	6823      	ldr	r3, [r4, #0]
 800496e:	60d8      	str	r0, [r3, #12]
 8004970:	e003      	b.n	800497a <UART_SetConfig+0x156>
 8004972:	f7ff f8a5 	bl	8003ac0 <HAL_RCCEx_GetD3PCLK1Freq>
 8004976:	2800      	cmp	r0, #0
 8004978:	d1d4      	bne.n	8004924 <UART_SetConfig+0x100>
 800497a:	2000      	movs	r0, #0
 800497c:	2300      	movs	r3, #0
 800497e:	f04f 1201 	mov.w	r2, #65537	@ 0x10001
 8004982:	e9c4 231a 	strd	r2, r3, [r4, #104]	@ 0x68
 8004986:	6723      	str	r3, [r4, #112]	@ 0x70
 8004988:	b007      	add	sp, #28
 800498a:	bd30      	pop	{r4, r5, pc}
 800498c:	4668      	mov	r0, sp
 800498e:	f7ff f8a9 	bl	8003ae4 <HAL_RCCEx_GetPLL2ClockFreq>
 8004992:	9801      	ldr	r0, [sp, #4]
 8004994:	e7ef      	b.n	8004976 <UART_SetConfig+0x152>
 8004996:	a803      	add	r0, sp, #12
 8004998:	f7ff f94e 	bl	8003c38 <HAL_RCCEx_GetPLL3ClockFreq>
 800499c:	9804      	ldr	r0, [sp, #16]
 800499e:	e7ea      	b.n	8004976 <UART_SetConfig+0x152>
 80049a0:	6813      	ldr	r3, [r2, #0]
 80049a2:	485a      	ldr	r0, [pc, #360]	@ (8004b0c <UART_SetConfig+0x2e8>)
 80049a4:	f013 0f20 	tst.w	r3, #32
 80049a8:	d0bc      	beq.n	8004924 <UART_SetConfig+0x100>
 80049aa:	6813      	ldr	r3, [r2, #0]
 80049ac:	f3c3 03c1 	ubfx	r3, r3, #3, #2
 80049b0:	40d8      	lsrs	r0, r3
 80049b2:	e7b7      	b.n	8004924 <UART_SetConfig+0x100>
 80049b4:	4856      	ldr	r0, [pc, #344]	@ (8004b10 <UART_SetConfig+0x2ec>)
 80049b6:	e7b5      	b.n	8004924 <UART_SetConfig+0x100>
 80049b8:	f5b3 4f00 	cmp.w	r3, #32768	@ 0x8000
 80049bc:	d156      	bne.n	8004a6c <UART_SetConfig+0x248>
 80049be:	2300      	movs	r3, #0
 80049c0:	2b08      	cmp	r3, #8
 80049c2:	f63f af6e 	bhi.w	80048a2 <UART_SetConfig+0x7e>
 80049c6:	a201      	add	r2, pc, #4	@ (adr r2, 80049cc <UART_SetConfig+0x1a8>)
 80049c8:	f852 f023 	ldr.w	pc, [r2, r3, lsl #2]
 80049cc:	080049f9 	.word	0x080049f9
 80049d0:	08004a05 	.word	0x08004a05
 80049d4:	080048a3 	.word	0x080048a3
 80049d8:	080048a3 	.word	0x080048a3
 80049dc:	08004a0b 	.word	0x08004a0b
 80049e0:	080048a3 	.word	0x080048a3
 80049e4:	080048a3 	.word	0x080048a3
 80049e8:	080048a3 	.word	0x080048a3
 80049ec:	08004a15 	.word	0x08004a15
 80049f0:	2304      	movs	r3, #4
 80049f2:	e7e5      	b.n	80049c0 <UART_SetConfig+0x19c>
 80049f4:	2308      	movs	r3, #8
 80049f6:	e7e3      	b.n	80049c0 <UART_SetConfig+0x19c>
 80049f8:	f7fe fad4 	bl	8002fa4 <HAL_RCC_GetPCLK1Freq>
 80049fc:	4603      	mov	r3, r0
 80049fe:	2b00      	cmp	r3, #0
 8004a00:	d0bb      	beq.n	800497a <UART_SetConfig+0x156>
 8004a02:	e014      	b.n	8004a2e <UART_SetConfig+0x20a>
 8004a04:	f7fe fae0 	bl	8002fc8 <HAL_RCC_GetPCLK2Freq>
 8004a08:	e7f8      	b.n	80049fc <UART_SetConfig+0x1d8>
 8004a0a:	4668      	mov	r0, sp
 8004a0c:	f7ff f86a 	bl	8003ae4 <HAL_RCCEx_GetPLL2ClockFreq>
 8004a10:	9b01      	ldr	r3, [sp, #4]
 8004a12:	e7f4      	b.n	80049fe <UART_SetConfig+0x1da>
 8004a14:	a803      	add	r0, sp, #12
 8004a16:	f7ff f90f 	bl	8003c38 <HAL_RCCEx_GetPLL3ClockFreq>
 8004a1a:	9b04      	ldr	r3, [sp, #16]
 8004a1c:	e7ef      	b.n	80049fe <UART_SetConfig+0x1da>
 8004a1e:	f013 0f20 	tst.w	r3, #32
 8004a22:	4b3a      	ldr	r3, [pc, #232]	@ (8004b0c <UART_SetConfig+0x2e8>)
 8004a24:	d003      	beq.n	8004a2e <UART_SetConfig+0x20a>
 8004a26:	6812      	ldr	r2, [r2, #0]
 8004a28:	f3c2 02c1 	ubfx	r2, r2, #3, #2
 8004a2c:	40d3      	lsrs	r3, r2
 8004a2e:	6a60      	ldr	r0, [r4, #36]	@ 0x24
 8004a30:	4a34      	ldr	r2, [pc, #208]	@ (8004b04 <UART_SetConfig+0x2e0>)
 8004a32:	6861      	ldr	r1, [r4, #4]
 8004a34:	f832 2010 	ldrh.w	r2, [r2, r0, lsl #1]
 8004a38:	fbb3 f3f2 	udiv	r3, r3, r2
 8004a3c:	084a      	lsrs	r2, r1, #1
 8004a3e:	eb02 0343 	add.w	r3, r2, r3, lsl #1
 8004a42:	fbb3 f3f1 	udiv	r3, r3, r1
 8004a46:	b29a      	uxth	r2, r3
 8004a48:	f64f 71ef 	movw	r1, #65519	@ 0xffef
 8004a4c:	f1a2 0010 	sub.w	r0, r2, #16
 8004a50:	4288      	cmp	r0, r1
 8004a52:	f63f af26 	bhi.w	80048a2 <UART_SetConfig+0x7e>
 8004a56:	f023 030f 	bic.w	r3, r3, #15
 8004a5a:	f3c2 0242 	ubfx	r2, r2, #1, #3
 8004a5e:	6821      	ldr	r1, [r4, #0]
 8004a60:	b29b      	uxth	r3, r3
 8004a62:	4313      	orrs	r3, r2
 8004a64:	60cb      	str	r3, [r1, #12]
 8004a66:	e788      	b.n	800497a <UART_SetConfig+0x156>
 8004a68:	4b29      	ldr	r3, [pc, #164]	@ (8004b10 <UART_SetConfig+0x2ec>)
 8004a6a:	e7e0      	b.n	8004a2e <UART_SetConfig+0x20a>
 8004a6c:	f7fe fa9a 	bl	8002fa4 <HAL_RCC_GetPCLK1Freq>
 8004a70:	2800      	cmp	r0, #0
 8004a72:	d082      	beq.n	800497a <UART_SetConfig+0x156>
 8004a74:	e01a      	b.n	8004aac <UART_SetConfig+0x288>
 8004a76:	f5b3 4f00 	cmp.w	r3, #32768	@ 0x8000
 8004a7a:	d0c3      	beq.n	8004a04 <UART_SetConfig+0x1e0>
 8004a7c:	f7fe faa4 	bl	8002fc8 <HAL_RCC_GetPCLK2Freq>
 8004a80:	e7f6      	b.n	8004a70 <UART_SetConfig+0x24c>
 8004a82:	f5b3 4f00 	cmp.w	r3, #32768	@ 0x8000
 8004a86:	d0b3      	beq.n	80049f0 <UART_SetConfig+0x1cc>
 8004a88:	4668      	mov	r0, sp
 8004a8a:	f7ff f82b 	bl	8003ae4 <HAL_RCCEx_GetPLL2ClockFreq>
 8004a8e:	9801      	ldr	r0, [sp, #4]
 8004a90:	e7ee      	b.n	8004a70 <UART_SetConfig+0x24c>
 8004a92:	f5b3 4f00 	cmp.w	r3, #32768	@ 0x8000
 8004a96:	4a13      	ldr	r2, [pc, #76]	@ (8004ae4 <UART_SetConfig+0x2c0>)
 8004a98:	6813      	ldr	r3, [r2, #0]
 8004a9a:	d0c0      	beq.n	8004a1e <UART_SetConfig+0x1fa>
 8004a9c:	f013 0f20 	tst.w	r3, #32
 8004aa0:	481a      	ldr	r0, [pc, #104]	@ (8004b0c <UART_SetConfig+0x2e8>)
 8004aa2:	d003      	beq.n	8004aac <UART_SetConfig+0x288>
 8004aa4:	6813      	ldr	r3, [r2, #0]
 8004aa6:	f3c3 03c1 	ubfx	r3, r3, #3, #2
 8004aaa:	40d8      	lsrs	r0, r3
 8004aac:	6a61      	ldr	r1, [r4, #36]	@ 0x24
 8004aae:	4b15      	ldr	r3, [pc, #84]	@ (8004b04 <UART_SetConfig+0x2e0>)
 8004ab0:	6862      	ldr	r2, [r4, #4]
 8004ab2:	f833 3011 	ldrh.w	r3, [r3, r1, lsl #1]
 8004ab6:	fbb0 f3f3 	udiv	r3, r0, r3
 8004aba:	eb03 0352 	add.w	r3, r3, r2, lsr #1
 8004abe:	fbb3 f3f2 	udiv	r3, r3, r2
 8004ac2:	b29b      	uxth	r3, r3
 8004ac4:	f64f 72ef 	movw	r2, #65519	@ 0xffef
 8004ac8:	f1a3 0110 	sub.w	r1, r3, #16
 8004acc:	4291      	cmp	r1, r2
 8004ace:	f63f aee8 	bhi.w	80048a2 <UART_SetConfig+0x7e>
 8004ad2:	6822      	ldr	r2, [r4, #0]
 8004ad4:	60d3      	str	r3, [r2, #12]
 8004ad6:	e750      	b.n	800497a <UART_SetConfig+0x156>
 8004ad8:	cfff69f3 	.word	0xcfff69f3
 8004adc:	58000c00 	.word	0x58000c00
 8004ae0:	40011000 	.word	0x40011000
 8004ae4:	58024400 	.word	0x58024400
 8004ae8:	40004400 	.word	0x40004400
 8004aec:	40004800 	.word	0x40004800
 8004af0:	40004c00 	.word	0x40004c00
 8004af4:	40005000 	.word	0x40005000
 8004af8:	40011400 	.word	0x40011400
 8004afc:	40007800 	.word	0x40007800
 8004b00:	40007c00 	.word	0x40007c00
 8004b04:	08005098 	.word	0x08005098
 8004b08:	000ffcff 	.word	0x000ffcff
 8004b0c:	03d09000 	.word	0x03d09000
 8004b10:	003d0900 	.word	0x003d0900
 8004b14:	f5b3 4f00 	cmp.w	r3, #32768	@ 0x8000
 8004b18:	d0a6      	beq.n	8004a68 <UART_SetConfig+0x244>
 8004b1a:	4805      	ldr	r0, [pc, #20]	@ (8004b30 <UART_SetConfig+0x30c>)
 8004b1c:	e7c6      	b.n	8004aac <UART_SetConfig+0x288>
 8004b1e:	f5b3 4f00 	cmp.w	r3, #32768	@ 0x8000
 8004b22:	f43f af67 	beq.w	80049f4 <UART_SetConfig+0x1d0>
 8004b26:	a803      	add	r0, sp, #12
 8004b28:	f7ff f886 	bl	8003c38 <HAL_RCCEx_GetPLL3ClockFreq>
 8004b2c:	9804      	ldr	r0, [sp, #16]
 8004b2e:	e79f      	b.n	8004a70 <UART_SetConfig+0x24c>
 8004b30:	003d0900 	.word	0x003d0900

08004b34 <UART_AdvFeatureConfig>:
 8004b34:	6a83      	ldr	r3, [r0, #40]	@ 0x28
 8004b36:	07da      	lsls	r2, r3, #31
 8004b38:	b510      	push	{r4, lr}
 8004b3a:	d506      	bpl.n	8004b4a <UART_AdvFeatureConfig+0x16>
 8004b3c:	6801      	ldr	r1, [r0, #0]
 8004b3e:	6ac4      	ldr	r4, [r0, #44]	@ 0x2c
 8004b40:	684a      	ldr	r2, [r1, #4]
 8004b42:	f422 3200 	bic.w	r2, r2, #131072	@ 0x20000
 8004b46:	4322      	orrs	r2, r4
 8004b48:	604a      	str	r2, [r1, #4]
 8004b4a:	079c      	lsls	r4, r3, #30
 8004b4c:	d506      	bpl.n	8004b5c <UART_AdvFeatureConfig+0x28>
 8004b4e:	6801      	ldr	r1, [r0, #0]
 8004b50:	6b04      	ldr	r4, [r0, #48]	@ 0x30
 8004b52:	684a      	ldr	r2, [r1, #4]
 8004b54:	f422 3280 	bic.w	r2, r2, #65536	@ 0x10000
 8004b58:	4322      	orrs	r2, r4
 8004b5a:	604a      	str	r2, [r1, #4]
 8004b5c:	0759      	lsls	r1, r3, #29
 8004b5e:	d506      	bpl.n	8004b6e <UART_AdvFeatureConfig+0x3a>
 8004b60:	6801      	ldr	r1, [r0, #0]
 8004b62:	6b44      	ldr	r4, [r0, #52]	@ 0x34
 8004b64:	684a      	ldr	r2, [r1, #4]
 8004b66:	f422 2280 	bic.w	r2, r2, #262144	@ 0x40000
 8004b6a:	4322      	orrs	r2, r4
 8004b6c:	604a      	str	r2, [r1, #4]
 8004b6e:	071a      	lsls	r2, r3, #28
 8004b70:	d506      	bpl.n	8004b80 <UART_AdvFeatureConfig+0x4c>
 8004b72:	6801      	ldr	r1, [r0, #0]
 8004b74:	6b84      	ldr	r4, [r0, #56]	@ 0x38
 8004b76:	684a      	ldr	r2, [r1, #4]
 8004b78:	f422 4200 	bic.w	r2, r2, #32768	@ 0x8000
 8004b7c:	4322      	orrs	r2, r4
 8004b7e:	604a      	str	r2, [r1, #4]
 8004b80:	06dc      	lsls	r4, r3, #27
 8004b82:	d506      	bpl.n	8004b92 <UART_AdvFeatureConfig+0x5e>
 8004b84:	6801      	ldr	r1, [r0, #0]
 8004b86:	6bc4      	ldr	r4, [r0, #60]	@ 0x3c
 8004b88:	688a      	ldr	r2, [r1, #8]
 8004b8a:	f422 5280 	bic.w	r2, r2, #4096	@ 0x1000
 8004b8e:	4322      	orrs	r2, r4
 8004b90:	608a      	str	r2, [r1, #8]
 8004b92:	0699      	lsls	r1, r3, #26
 8004b94:	d506      	bpl.n	8004ba4 <UART_AdvFeatureConfig+0x70>
 8004b96:	6801      	ldr	r1, [r0, #0]
 8004b98:	6c04      	ldr	r4, [r0, #64]	@ 0x40
 8004b9a:	688a      	ldr	r2, [r1, #8]
 8004b9c:	f422 5200 	bic.w	r2, r2, #8192	@ 0x2000
 8004ba0:	4322      	orrs	r2, r4
 8004ba2:	608a      	str	r2, [r1, #8]
 8004ba4:	065a      	lsls	r2, r3, #25
 8004ba6:	d510      	bpl.n	8004bca <UART_AdvFeatureConfig+0x96>
 8004ba8:	6801      	ldr	r1, [r0, #0]
 8004baa:	6c44      	ldr	r4, [r0, #68]	@ 0x44
 8004bac:	684a      	ldr	r2, [r1, #4]
 8004bae:	f5b4 1f80 	cmp.w	r4, #1048576	@ 0x100000
 8004bb2:	f422 1280 	bic.w	r2, r2, #1048576	@ 0x100000
 8004bb6:	ea42 0204 	orr.w	r2, r2, r4
 8004bba:	604a      	str	r2, [r1, #4]
 8004bbc:	d105      	bne.n	8004bca <UART_AdvFeatureConfig+0x96>
 8004bbe:	684a      	ldr	r2, [r1, #4]
 8004bc0:	6c84      	ldr	r4, [r0, #72]	@ 0x48
 8004bc2:	f422 02c0 	bic.w	r2, r2, #6291456	@ 0x600000
 8004bc6:	4322      	orrs	r2, r4
 8004bc8:	604a      	str	r2, [r1, #4]
 8004bca:	061b      	lsls	r3, r3, #24
 8004bcc:	d506      	bpl.n	8004bdc <UART_AdvFeatureConfig+0xa8>
 8004bce:	6802      	ldr	r2, [r0, #0]
 8004bd0:	6cc1      	ldr	r1, [r0, #76]	@ 0x4c
 8004bd2:	6853      	ldr	r3, [r2, #4]
 8004bd4:	f423 2300 	bic.w	r3, r3, #524288	@ 0x80000
 8004bd8:	430b      	orrs	r3, r1
 8004bda:	6053      	str	r3, [r2, #4]
 8004bdc:	bd10      	pop	{r4, pc}

08004bde <UART_WaitOnFlagUntilTimeout>:
 8004bde:	e92d 43f8 	stmdb	sp!, {r3, r4, r5, r6, r7, r8, r9, lr}
 8004be2:	f8dd 9020 	ldr.w	r9, [sp, #32]
 8004be6:	4605      	mov	r5, r0
 8004be8:	460f      	mov	r7, r1
 8004bea:	4616      	mov	r6, r2
 8004bec:	4698      	mov	r8, r3
 8004bee:	682a      	ldr	r2, [r5, #0]
 8004bf0:	69d3      	ldr	r3, [r2, #28]
 8004bf2:	ea37 0303 	bics.w	r3, r7, r3
 8004bf6:	bf0c      	ite	eq
 8004bf8:	2301      	moveq	r3, #1
 8004bfa:	2300      	movne	r3, #0
 8004bfc:	42b3      	cmp	r3, r6
 8004bfe:	d001      	beq.n	8004c04 <UART_WaitOnFlagUntilTimeout+0x26>
 8004c00:	2000      	movs	r0, #0
 8004c02:	e01d      	b.n	8004c40 <UART_WaitOnFlagUntilTimeout+0x62>
 8004c04:	f1b9 3fff 	cmp.w	r9, #4294967295
 8004c08:	d0f2      	beq.n	8004bf0 <UART_WaitOnFlagUntilTimeout+0x12>
 8004c0a:	f7fc fdd9 	bl	80017c0 <HAL_GetTick>
 8004c0e:	eba0 0008 	sub.w	r0, r0, r8
 8004c12:	682c      	ldr	r4, [r5, #0]
 8004c14:	4548      	cmp	r0, r9
 8004c16:	6823      	ldr	r3, [r4, #0]
 8004c18:	d802      	bhi.n	8004c20 <UART_WaitOnFlagUntilTimeout+0x42>
 8004c1a:	f1b9 0f00 	cmp.w	r9, #0
 8004c1e:	d111      	bne.n	8004c44 <UART_WaitOnFlagUntilTimeout+0x66>
 8004c20:	f423 73d0 	bic.w	r3, r3, #416	@ 0x1a0
 8004c24:	6023      	str	r3, [r4, #0]
 8004c26:	68a3      	ldr	r3, [r4, #8]
 8004c28:	f023 0301 	bic.w	r3, r3, #1
 8004c2c:	60a3      	str	r3, [r4, #8]
 8004c2e:	2320      	movs	r3, #32
 8004c30:	f8c5 3080 	str.w	r3, [r5, #128]	@ 0x80
 8004c34:	f8c5 3084 	str.w	r3, [r5, #132]	@ 0x84
 8004c38:	2300      	movs	r3, #0
 8004c3a:	2003      	movs	r0, #3
 8004c3c:	f885 307c 	strb.w	r3, [r5, #124]	@ 0x7c
 8004c40:	e8bd 83f8 	ldmia.w	sp!, {r3, r4, r5, r6, r7, r8, r9, pc}
 8004c44:	075a      	lsls	r2, r3, #29
 8004c46:	d5d2      	bpl.n	8004bee <UART_WaitOnFlagUntilTimeout+0x10>
 8004c48:	69e3      	ldr	r3, [r4, #28]
 8004c4a:	051b      	lsls	r3, r3, #20
 8004c4c:	d5cf      	bpl.n	8004bee <UART_WaitOnFlagUntilTimeout+0x10>
 8004c4e:	f44f 6300 	mov.w	r3, #2048	@ 0x800
 8004c52:	6223      	str	r3, [r4, #32]
 8004c54:	6823      	ldr	r3, [r4, #0]
 8004c56:	f423 73d0 	bic.w	r3, r3, #416	@ 0x1a0
 8004c5a:	6023      	str	r3, [r4, #0]
 8004c5c:	68a3      	ldr	r3, [r4, #8]
 8004c5e:	f023 0301 	bic.w	r3, r3, #1
 8004c62:	60a3      	str	r3, [r4, #8]
 8004c64:	2320      	movs	r3, #32
 8004c66:	f8c5 3080 	str.w	r3, [r5, #128]	@ 0x80
 8004c6a:	f8c5 3084 	str.w	r3, [r5, #132]	@ 0x84
 8004c6e:	f8c5 3088 	str.w	r3, [r5, #136]	@ 0x88
 8004c72:	e7e1      	b.n	8004c38 <UART_WaitOnFlagUntilTimeout+0x5a>

08004c74 <HAL_UART_Transmit>:
 8004c74:	e92d 43f7 	stmdb	sp!, {r0, r1, r2, r4, r5, r6, r7, r8, r9, lr}
 8004c78:	4698      	mov	r8, r3
 8004c7a:	f8d0 3080 	ldr.w	r3, [r0, #128]	@ 0x80
 8004c7e:	4604      	mov	r4, r0
 8004c80:	460e      	mov	r6, r1
 8004c82:	2b20      	cmp	r3, #32
 8004c84:	4617      	mov	r7, r2
 8004c86:	d14f      	bne.n	8004d28 <HAL_UART_Transmit+0xb4>
 8004c88:	2900      	cmp	r1, #0
 8004c8a:	d04b      	beq.n	8004d24 <HAL_UART_Transmit+0xb0>
 8004c8c:	2a00      	cmp	r2, #0
 8004c8e:	d049      	beq.n	8004d24 <HAL_UART_Transmit+0xb0>
 8004c90:	f890 307c 	ldrb.w	r3, [r0, #124]	@ 0x7c
 8004c94:	2b01      	cmp	r3, #1
 8004c96:	d047      	beq.n	8004d28 <HAL_UART_Transmit+0xb4>
 8004c98:	2301      	movs	r3, #1
 8004c9a:	2500      	movs	r5, #0
 8004c9c:	f880 307c 	strb.w	r3, [r0, #124]	@ 0x7c
 8004ca0:	2321      	movs	r3, #33	@ 0x21
 8004ca2:	f8c0 5088 	str.w	r5, [r0, #136]	@ 0x88
 8004ca6:	f8c0 3080 	str.w	r3, [r0, #128]	@ 0x80
 8004caa:	f7fc fd89 	bl	80017c0 <HAL_GetTick>
 8004cae:	68a3      	ldr	r3, [r4, #8]
 8004cb0:	4681      	mov	r9, r0
 8004cb2:	f8a4 7054 	strh.w	r7, [r4, #84]	@ 0x54
 8004cb6:	f5b3 5f80 	cmp.w	r3, #4096	@ 0x1000
 8004cba:	f8a4 7056 	strh.w	r7, [r4, #86]	@ 0x56
 8004cbe:	d103      	bne.n	8004cc8 <HAL_UART_Transmit+0x54>
 8004cc0:	6923      	ldr	r3, [r4, #16]
 8004cc2:	b90b      	cbnz	r3, 8004cc8 <HAL_UART_Transmit+0x54>
 8004cc4:	4635      	mov	r5, r6
 8004cc6:	461e      	mov	r6, r3
 8004cc8:	2300      	movs	r3, #0
 8004cca:	f884 307c 	strb.w	r3, [r4, #124]	@ 0x7c
 8004cce:	f8b4 2056 	ldrh.w	r2, [r4, #86]	@ 0x56
 8004cd2:	464b      	mov	r3, r9
 8004cd4:	f8cd 8000 	str.w	r8, [sp]
 8004cd8:	b292      	uxth	r2, r2
 8004cda:	b942      	cbnz	r2, 8004cee <HAL_UART_Transmit+0x7a>
 8004cdc:	2140      	movs	r1, #64	@ 0x40
 8004cde:	4620      	mov	r0, r4
 8004ce0:	f7ff ff7d 	bl	8004bde <UART_WaitOnFlagUntilTimeout>
 8004ce4:	b948      	cbnz	r0, 8004cfa <HAL_UART_Transmit+0x86>
 8004ce6:	2320      	movs	r3, #32
 8004ce8:	f8c4 3080 	str.w	r3, [r4, #128]	@ 0x80
 8004cec:	e006      	b.n	8004cfc <HAL_UART_Transmit+0x88>
 8004cee:	2200      	movs	r2, #0
 8004cf0:	2180      	movs	r1, #128	@ 0x80
 8004cf2:	4620      	mov	r0, r4
 8004cf4:	f7ff ff73 	bl	8004bde <UART_WaitOnFlagUntilTimeout>
 8004cf8:	b118      	cbz	r0, 8004d02 <HAL_UART_Transmit+0x8e>
 8004cfa:	2003      	movs	r0, #3
 8004cfc:	b003      	add	sp, #12
 8004cfe:	e8bd 83f0 	ldmia.w	sp!, {r4, r5, r6, r7, r8, r9, pc}
 8004d02:	6822      	ldr	r2, [r4, #0]
 8004d04:	b95e      	cbnz	r6, 8004d1e <HAL_UART_Transmit+0xaa>
 8004d06:	f835 3b02 	ldrh.w	r3, [r5], #2
 8004d0a:	f3c3 0308 	ubfx	r3, r3, #0, #9
 8004d0e:	6293      	str	r3, [r2, #40]	@ 0x28
 8004d10:	f8b4 2056 	ldrh.w	r2, [r4, #86]	@ 0x56
 8004d14:	3a01      	subs	r2, #1
 8004d16:	b292      	uxth	r2, r2
 8004d18:	f8a4 2056 	strh.w	r2, [r4, #86]	@ 0x56
 8004d1c:	e7d7      	b.n	8004cce <HAL_UART_Transmit+0x5a>
 8004d1e:	f816 3b01 	ldrb.w	r3, [r6], #1
 8004d22:	e7f4      	b.n	8004d0e <HAL_UART_Transmit+0x9a>
 8004d24:	2001      	movs	r0, #1
 8004d26:	e7e9      	b.n	8004cfc <HAL_UART_Transmit+0x88>
 8004d28:	2002      	movs	r0, #2
 8004d2a:	e7e7      	b.n	8004cfc <HAL_UART_Transmit+0x88>

08004d2c <UART_CheckIdleState>:
 8004d2c:	b573      	push	{r0, r1, r4, r5, r6, lr}
 8004d2e:	2600      	movs	r6, #0
 8004d30:	4604      	mov	r4, r0
 8004d32:	f8c0 6088 	str.w	r6, [r0, #136]	@ 0x88
 8004d36:	f7fc fd43 	bl	80017c0 <HAL_GetTick>
 8004d3a:	6823      	ldr	r3, [r4, #0]
 8004d3c:	4605      	mov	r5, r0
 8004d3e:	681b      	ldr	r3, [r3, #0]
 8004d40:	071a      	lsls	r2, r3, #28
 8004d42:	d417      	bmi.n	8004d74 <UART_CheckIdleState+0x48>
 8004d44:	6823      	ldr	r3, [r4, #0]
 8004d46:	681b      	ldr	r3, [r3, #0]
 8004d48:	075b      	lsls	r3, r3, #29
 8004d4a:	d50a      	bpl.n	8004d62 <UART_CheckIdleState+0x36>
 8004d4c:	f06f 437e 	mvn.w	r3, #4261412864	@ 0xfe000000
 8004d50:	2200      	movs	r2, #0
 8004d52:	f44f 0180 	mov.w	r1, #4194304	@ 0x400000
 8004d56:	4620      	mov	r0, r4
 8004d58:	9300      	str	r3, [sp, #0]
 8004d5a:	462b      	mov	r3, r5
 8004d5c:	f7ff ff3f 	bl	8004bde <UART_WaitOnFlagUntilTimeout>
 8004d60:	b9a0      	cbnz	r0, 8004d8c <UART_CheckIdleState+0x60>
 8004d62:	2320      	movs	r3, #32
 8004d64:	2000      	movs	r0, #0
 8004d66:	f8c4 3080 	str.w	r3, [r4, #128]	@ 0x80
 8004d6a:	f884 007c 	strb.w	r0, [r4, #124]	@ 0x7c
 8004d6e:	f8c4 3084 	str.w	r3, [r4, #132]	@ 0x84
 8004d72:	e00c      	b.n	8004d8e <UART_CheckIdleState+0x62>
 8004d74:	f06f 437e 	mvn.w	r3, #4261412864	@ 0xfe000000
 8004d78:	4632      	mov	r2, r6
 8004d7a:	f44f 1100 	mov.w	r1, #2097152	@ 0x200000
 8004d7e:	9300      	str	r3, [sp, #0]
 8004d80:	4603      	mov	r3, r0
 8004d82:	4620      	mov	r0, r4
 8004d84:	f7ff ff2b 	bl	8004bde <UART_WaitOnFlagUntilTimeout>
 8004d88:	2800      	cmp	r0, #0
 8004d8a:	d0db      	beq.n	8004d44 <UART_CheckIdleState+0x18>
 8004d8c:	2003      	movs	r0, #3
 8004d8e:	b002      	add	sp, #8
 8004d90:	bd70      	pop	{r4, r5, r6, pc}

08004d92 <HAL_UART_Init>:
 8004d92:	b510      	push	{r4, lr}
 8004d94:	4604      	mov	r4, r0
 8004d96:	b350      	cbz	r0, 8004dee <HAL_UART_Init+0x5c>
 8004d98:	f8d0 3080 	ldr.w	r3, [r0, #128]	@ 0x80
 8004d9c:	b91b      	cbnz	r3, 8004da6 <HAL_UART_Init+0x14>
 8004d9e:	f880 307c 	strb.w	r3, [r0, #124]	@ 0x7c
 8004da2:	f7fc fb25 	bl	80013f0 <HAL_UART_MspInit>
 8004da6:	6822      	ldr	r2, [r4, #0]
 8004da8:	2324      	movs	r3, #36	@ 0x24
 8004daa:	4620      	mov	r0, r4
 8004dac:	f8c4 3080 	str.w	r3, [r4, #128]	@ 0x80
 8004db0:	6813      	ldr	r3, [r2, #0]
 8004db2:	f023 0301 	bic.w	r3, r3, #1
 8004db6:	6013      	str	r3, [r2, #0]
 8004db8:	f7ff fd34 	bl	8004824 <UART_SetConfig>
 8004dbc:	2801      	cmp	r0, #1
 8004dbe:	d016      	beq.n	8004dee <HAL_UART_Init+0x5c>
 8004dc0:	6aa3      	ldr	r3, [r4, #40]	@ 0x28
 8004dc2:	b113      	cbz	r3, 8004dca <HAL_UART_Init+0x38>
 8004dc4:	4620      	mov	r0, r4
 8004dc6:	f7ff feb5 	bl	8004b34 <UART_AdvFeatureConfig>
 8004dca:	6823      	ldr	r3, [r4, #0]
 8004dcc:	4620      	mov	r0, r4
 8004dce:	685a      	ldr	r2, [r3, #4]
 8004dd0:	f422 4290 	bic.w	r2, r2, #18432	@ 0x4800
 8004dd4:	605a      	str	r2, [r3, #4]
 8004dd6:	689a      	ldr	r2, [r3, #8]
 8004dd8:	f022 022a 	bic.w	r2, r2, #42	@ 0x2a
 8004ddc:	609a      	str	r2, [r3, #8]
 8004dde:	681a      	ldr	r2, [r3, #0]
 8004de0:	f042 0201 	orr.w	r2, r2, #1
 8004de4:	e8bd 4010 	ldmia.w	sp!, {r4, lr}
 8004de8:	601a      	str	r2, [r3, #0]
 8004dea:	f7ff bf9f 	b.w	8004d2c <UART_CheckIdleState>
 8004dee:	2001      	movs	r0, #1
 8004df0:	bd10      	pop	{r4, pc}
	...

08004df4 <UARTEx_SetNbDataToProcess>:
 8004df4:	b084      	sub	sp, #16
 8004df6:	4918      	ldr	r1, [pc, #96]	@ (8004e58 <UARTEx_SetNbDataToProcess+0x64>)
 8004df8:	4602      	mov	r2, r0
 8004dfa:	466b      	mov	r3, sp
 8004dfc:	6808      	ldr	r0, [r1, #0]
 8004dfe:	6849      	ldr	r1, [r1, #4]
 8004e00:	c303      	stmia	r3!, {r0, r1}
 8004e02:	4916      	ldr	r1, [pc, #88]	@ (8004e5c <UARTEx_SetNbDataToProcess+0x68>)
 8004e04:	6808      	ldr	r0, [r1, #0]
 8004e06:	6849      	ldr	r1, [r1, #4]
 8004e08:	c303      	stmia	r3!, {r0, r1}
 8004e0a:	6e53      	ldr	r3, [r2, #100]	@ 0x64
 8004e0c:	b933      	cbnz	r3, 8004e1c <UARTEx_SetNbDataToProcess+0x28>
 8004e0e:	2301      	movs	r3, #1
 8004e10:	f8a2 306a 	strh.w	r3, [r2, #106]	@ 0x6a
 8004e14:	f8a2 3068 	strh.w	r3, [r2, #104]	@ 0x68
 8004e18:	b004      	add	sp, #16
 8004e1a:	4770      	bx	lr
 8004e1c:	6813      	ldr	r3, [r2, #0]
 8004e1e:	6899      	ldr	r1, [r3, #8]
 8004e20:	6898      	ldr	r0, [r3, #8]
 8004e22:	ab04      	add	r3, sp, #16
 8004e24:	f3c1 6142 	ubfx	r1, r1, #25, #3
 8004e28:	eb03 7050 	add.w	r0, r3, r0, lsr #29
 8004e2c:	f810 3c10 	ldrb.w	r3, [r0, #-16]
 8004e30:	f810 0c08 	ldrb.w	r0, [r0, #-8]
 8004e34:	011b      	lsls	r3, r3, #4
 8004e36:	fbb3 f3f0 	udiv	r3, r3, r0
 8004e3a:	f8a2 306a 	strh.w	r3, [r2, #106]	@ 0x6a
 8004e3e:	f101 0310 	add.w	r3, r1, #16
 8004e42:	eb0d 0103 	add.w	r1, sp, r3
 8004e46:	f811 3c10 	ldrb.w	r3, [r1, #-16]
 8004e4a:	f811 1c08 	ldrb.w	r1, [r1, #-8]
 8004e4e:	011b      	lsls	r3, r3, #4
 8004e50:	fbb3 f3f1 	udiv	r3, r3, r1
 8004e54:	e7de      	b.n	8004e14 <UARTEx_SetNbDataToProcess+0x20>
 8004e56:	bf00      	nop
 8004e58:	08005070 	.word	0x08005070
 8004e5c:	080050b0 	.word	0x080050b0

08004e60 <HAL_RS485Ex_Init>:
 8004e60:	b5f8      	push	{r3, r4, r5, r6, r7, lr}
 8004e62:	460f      	mov	r7, r1
 8004e64:	4616      	mov	r6, r2
 8004e66:	461d      	mov	r5, r3
 8004e68:	4604      	mov	r4, r0
 8004e6a:	2800      	cmp	r0, #0
 8004e6c:	d033      	beq.n	8004ed6 <HAL_RS485Ex_Init+0x76>
 8004e6e:	f8d0 3080 	ldr.w	r3, [r0, #128]	@ 0x80
 8004e72:	b91b      	cbnz	r3, 8004e7c <HAL_RS485Ex_Init+0x1c>
 8004e74:	f880 307c 	strb.w	r3, [r0, #124]	@ 0x7c
 8004e78:	f7fc faba 	bl	80013f0 <HAL_UART_MspInit>
 8004e7c:	6822      	ldr	r2, [r4, #0]
 8004e7e:	2324      	movs	r3, #36	@ 0x24
 8004e80:	4620      	mov	r0, r4
 8004e82:	f8c4 3080 	str.w	r3, [r4, #128]	@ 0x80
 8004e86:	6813      	ldr	r3, [r2, #0]
 8004e88:	f023 0301 	bic.w	r3, r3, #1
 8004e8c:	6013      	str	r3, [r2, #0]
 8004e8e:	f7ff fcc9 	bl	8004824 <UART_SetConfig>
 8004e92:	2801      	cmp	r0, #1
 8004e94:	d01f      	beq.n	8004ed6 <HAL_RS485Ex_Init+0x76>
 8004e96:	6aa3      	ldr	r3, [r4, #40]	@ 0x28
 8004e98:	b113      	cbz	r3, 8004ea0 <HAL_RS485Ex_Init+0x40>
 8004e9a:	4620      	mov	r0, r4
 8004e9c:	f7ff fe4a 	bl	8004b34 <UART_AdvFeatureConfig>
 8004ea0:	6823      	ldr	r3, [r4, #0]
 8004ea2:	042d      	lsls	r5, r5, #16
 8004ea4:	689a      	ldr	r2, [r3, #8]
 8004ea6:	ea45 5546 	orr.w	r5, r5, r6, lsl #21
 8004eaa:	f442 4280 	orr.w	r2, r2, #16384	@ 0x4000
 8004eae:	609a      	str	r2, [r3, #8]
 8004eb0:	6898      	ldr	r0, [r3, #8]
 8004eb2:	f420 4000 	bic.w	r0, r0, #32768	@ 0x8000
 8004eb6:	4338      	orrs	r0, r7
 8004eb8:	6098      	str	r0, [r3, #8]
 8004eba:	4620      	mov	r0, r4
 8004ebc:	681a      	ldr	r2, [r3, #0]
 8004ebe:	f36f 4219 	bfc	r2, #16, #10
 8004ec2:	4315      	orrs	r5, r2
 8004ec4:	601d      	str	r5, [r3, #0]
 8004ec6:	681a      	ldr	r2, [r3, #0]
 8004ec8:	f042 0201 	orr.w	r2, r2, #1
 8004ecc:	601a      	str	r2, [r3, #0]
 8004ece:	e8bd 40f8 	ldmia.w	sp!, {r3, r4, r5, r6, r7, lr}
 8004ed2:	f7ff bf2b 	b.w	8004d2c <UART_CheckIdleState>
 8004ed6:	2001      	movs	r0, #1
 8004ed8:	bdf8      	pop	{r3, r4, r5, r6, r7, pc}

08004eda <HAL_UARTEx_WakeupCallback>:
 8004eda:	4770      	bx	lr

08004edc <HAL_UARTEx_RxFifoFullCallback>:
 8004edc:	4770      	bx	lr

08004ede <HAL_UARTEx_TxFifoEmptyCallback>:
 8004ede:	4770      	bx	lr

08004ee0 <HAL_UARTEx_DisableFifoMode>:
 8004ee0:	f890 307c 	ldrb.w	r3, [r0, #124]	@ 0x7c
 8004ee4:	2b01      	cmp	r3, #1
 8004ee6:	d014      	beq.n	8004f12 <HAL_UARTEx_DisableFifoMode+0x32>
 8004ee8:	6802      	ldr	r2, [r0, #0]
 8004eea:	2324      	movs	r3, #36	@ 0x24
 8004eec:	f8c0 3080 	str.w	r3, [r0, #128]	@ 0x80
 8004ef0:	6811      	ldr	r1, [r2, #0]
 8004ef2:	6813      	ldr	r3, [r2, #0]
 8004ef4:	f021 5100 	bic.w	r1, r1, #536870912	@ 0x20000000
 8004ef8:	f023 0301 	bic.w	r3, r3, #1
 8004efc:	6013      	str	r3, [r2, #0]
 8004efe:	2300      	movs	r3, #0
 8004f00:	6643      	str	r3, [r0, #100]	@ 0x64
 8004f02:	6011      	str	r1, [r2, #0]
 8004f04:	2220      	movs	r2, #32
 8004f06:	f880 307c 	strb.w	r3, [r0, #124]	@ 0x7c
 8004f0a:	f8c0 2080 	str.w	r2, [r0, #128]	@ 0x80
 8004f0e:	4618      	mov	r0, r3
 8004f10:	4770      	bx	lr
 8004f12:	2002      	movs	r0, #2
 8004f14:	4770      	bx	lr

08004f16 <HAL_UARTEx_SetTxFifoThreshold>:
 8004f16:	b570      	push	{r4, r5, r6, lr}
 8004f18:	f890 307c 	ldrb.w	r3, [r0, #124]	@ 0x7c
 8004f1c:	4604      	mov	r4, r0
 8004f1e:	2b01      	cmp	r3, #1
 8004f20:	d017      	beq.n	8004f52 <HAL_UARTEx_SetTxFifoThreshold+0x3c>
 8004f22:	6805      	ldr	r5, [r0, #0]
 8004f24:	2324      	movs	r3, #36	@ 0x24
 8004f26:	f8c0 3080 	str.w	r3, [r0, #128]	@ 0x80
 8004f2a:	682e      	ldr	r6, [r5, #0]
 8004f2c:	682b      	ldr	r3, [r5, #0]
 8004f2e:	f023 0301 	bic.w	r3, r3, #1
 8004f32:	602b      	str	r3, [r5, #0]
 8004f34:	68ab      	ldr	r3, [r5, #8]
 8004f36:	f023 4360 	bic.w	r3, r3, #3758096384	@ 0xe0000000
 8004f3a:	4319      	orrs	r1, r3
 8004f3c:	60a9      	str	r1, [r5, #8]
 8004f3e:	f7ff ff59 	bl	8004df4 <UARTEx_SetNbDataToProcess>
 8004f42:	2320      	movs	r3, #32
 8004f44:	2000      	movs	r0, #0
 8004f46:	602e      	str	r6, [r5, #0]
 8004f48:	f8c4 3080 	str.w	r3, [r4, #128]	@ 0x80
 8004f4c:	f884 007c 	strb.w	r0, [r4, #124]	@ 0x7c
 8004f50:	bd70      	pop	{r4, r5, r6, pc}
 8004f52:	2002      	movs	r0, #2
 8004f54:	e7fc      	b.n	8004f50 <HAL_UARTEx_SetTxFifoThreshold+0x3a>

08004f56 <HAL_UARTEx_SetRxFifoThreshold>:
 8004f56:	b570      	push	{r4, r5, r6, lr}
 8004f58:	f890 307c 	ldrb.w	r3, [r0, #124]	@ 0x7c
 8004f5c:	4604      	mov	r4, r0
 8004f5e:	2b01      	cmp	r3, #1
 8004f60:	d017      	beq.n	8004f92 <HAL_UARTEx_SetRxFifoThreshold+0x3c>
 8004f62:	6805      	ldr	r5, [r0, #0]
 8004f64:	2324      	movs	r3, #36	@ 0x24
 8004f66:	f8c0 3080 	str.w	r3, [r0, #128]	@ 0x80
 8004f6a:	682e      	ldr	r6, [r5, #0]
 8004f6c:	682b      	ldr	r3, [r5, #0]
 8004f6e:	f023 0301 	bic.w	r3, r3, #1
 8004f72:	602b      	str	r3, [r5, #0]
 8004f74:	68ab      	ldr	r3, [r5, #8]
 8004f76:	f023 6360 	bic.w	r3, r3, #234881024	@ 0xe000000
 8004f7a:	4319      	orrs	r1, r3
 8004f7c:	60a9      	str	r1, [r5, #8]
 8004f7e:	f7ff ff39 	bl	8004df4 <UARTEx_SetNbDataToProcess>
 8004f82:	2320      	movs	r3, #32
 8004f84:	2000      	movs	r0, #0
 8004f86:	602e      	str	r6, [r5, #0]
 8004f88:	f8c4 3080 	str.w	r3, [r4, #128]	@ 0x80
 8004f8c:	f884 007c 	strb.w	r0, [r4, #124]	@ 0x7c
 8004f90:	bd70      	pop	{r4, r5, r6, pc}
 8004f92:	2002      	movs	r0, #2
 8004f94:	e7fc      	b.n	8004f90 <HAL_UARTEx_SetRxFifoThreshold+0x3a>

08004f96 <memset>:
 8004f96:	4402      	add	r2, r0
 8004f98:	4603      	mov	r3, r0
 8004f9a:	4293      	cmp	r3, r2
 8004f9c:	d100      	bne.n	8004fa0 <memset+0xa>
 8004f9e:	4770      	bx	lr
 8004fa0:	f803 1b01 	strb.w	r1, [r3], #1
 8004fa4:	e7f9      	b.n	8004f9a <memset+0x4>
	...

08004fa8 <__libc_init_array>:
 8004fa8:	b570      	push	{r4, r5, r6, lr}
 8004faa:	4d0d      	ldr	r5, [pc, #52]	@ (8004fe0 <__libc_init_array+0x38>)
 8004fac:	4c0d      	ldr	r4, [pc, #52]	@ (8004fe4 <__libc_init_array+0x3c>)
 8004fae:	1b64      	subs	r4, r4, r5
 8004fb0:	10a4      	asrs	r4, r4, #2
 8004fb2:	2600      	movs	r6, #0
 8004fb4:	42a6      	cmp	r6, r4
 8004fb6:	d109      	bne.n	8004fcc <__libc_init_array+0x24>
 8004fb8:	4d0b      	ldr	r5, [pc, #44]	@ (8004fe8 <__libc_init_array+0x40>)
 8004fba:	4c0c      	ldr	r4, [pc, #48]	@ (8004fec <__libc_init_array+0x44>)
 8004fbc:	f000 f826 	bl	800500c <_init>
 8004fc0:	1b64      	subs	r4, r4, r5
 8004fc2:	10a4      	asrs	r4, r4, #2
 8004fc4:	2600      	movs	r6, #0
 8004fc6:	42a6      	cmp	r6, r4
 8004fc8:	d105      	bne.n	8004fd6 <__libc_init_array+0x2e>
 8004fca:	bd70      	pop	{r4, r5, r6, pc}
 8004fcc:	f855 3b04 	ldr.w	r3, [r5], #4
 8004fd0:	4798      	blx	r3
 8004fd2:	3601      	adds	r6, #1
 8004fd4:	e7ee      	b.n	8004fb4 <__libc_init_array+0xc>
 8004fd6:	f855 3b04 	ldr.w	r3, [r5], #4
 8004fda:	4798      	blx	r3
 8004fdc:	3601      	adds	r6, #1
 8004fde:	e7f2      	b.n	8004fc6 <__libc_init_array+0x1e>
 8004fe0:	080050c4 	.word	0x080050c4
 8004fe4:	080050c4 	.word	0x080050c4
 8004fe8:	080050c4 	.word	0x080050c4
 8004fec:	080050c8 	.word	0x080050c8

08004ff0 <memcpy>:
 8004ff0:	440a      	add	r2, r1
 8004ff2:	4291      	cmp	r1, r2
 8004ff4:	f100 33ff 	add.w	r3, r0, #4294967295
 8004ff8:	d100      	bne.n	8004ffc <memcpy+0xc>
 8004ffa:	4770      	bx	lr
 8004ffc:	b510      	push	{r4, lr}
 8004ffe:	f811 4b01 	ldrb.w	r4, [r1], #1
 8005002:	f803 4f01 	strb.w	r4, [r3, #1]!
 8005006:	4291      	cmp	r1, r2
 8005008:	d1f9      	bne.n	8004ffe <memcpy+0xe>
 800500a:	bd10      	pop	{r4, pc}

0800500c <_init>:
 800500c:	b5f8      	push	{r3, r4, r5, r6, r7, lr}
 800500e:	bf00      	nop
 8005010:	bcf8      	pop	{r3, r4, r5, r6, r7}
 8005012:	bc08      	pop	{r3}
 8005014:	469e      	mov	lr, r3
 8005016:	4770      	bx	lr

08005018 <_fini>:
 8005018:	b5f8      	push	{r3, r4, r5, r6, r7, lr}
 800501a:	bf00      	nop
 800501c:	bcf8      	pop	{r3, r4, r5, r6, r7}
 800501e:	bc08      	pop	{r3}
 8005020:	469e      	mov	lr, r3
 8005022:	4770      	bx	lr
